(lp0
(lp1
F1.7485940144933432
aF1.8062061282604334
aF1.535498121144412
aF1.0620560026353711
aF1.4824880176507427
aF4.115903183637373
aF3.3257336752118523
aa(lp2
F1.8960193310121074
aF1.7072816987483366
aF1.765855780603113
aF1.5952777997902872
aF1.9925346784953164
aF3.6864279483963704
aF6.515105703510173
aa(lp3
F1.9657029502796641
aF1.8620633564382638
aF1.2896062732720275
aF1.8924859597987842
aF1.284873662449546
aF5.68488862381787
aF5.232403436492035
aa(lp4
F1.0475004920084432
aF1.2014742260376807
aF1.7835013286267847
aF1.6591616715363653
aF1.8567618849594132
aF1.4246121131555722
aF6.200382149733379
aa(lp5
F1.6957880885347942
aF1.3421807930188052
aF1.6577957229669067
aF1.0959574100989244
aF1.7876580996359905
aF2.8213044934116085
aF4.396844125944903
aa(lp6
F1.0670619458058521
aF1.814146122514173
aF1.667354417707899
aF1.3224206455122816
aF1.0760997164772874
aF2.6567520995984317
aF2.906786963479618
aa(lp7
F1.7391486010512829
aF1.5319590342028717
aF1.975677178523217
aF1.7455498097226343
aF1.7689858396861573
aF2.718833014525964
aF6.1762550392328635
aa(lp8
F1.1241832478970681
aF1.440709273838745
aF1.5157036529776264
aF1.3134761568796423
aF1.989266486710557
aF2.2032217049929215
aF5.6824007698410774
aa(lp9
F1.4903368919123436
aF1.2654300302050996
aF1.9383995669175689
aF1.17450383010616
aF1.2099123088527428
aF1.9719449374507487
aF2.843347042047415
aa(lp10
F1.925548813230459
aF1.7453230186894682
aF1.1640080803008772
aF1.229393895140373
aF1.6870688768907467
aF5.802271295191331
aF4.357610744781823
aa(lp11
F1.5281315665645459
aF1.9874601976156465
aF1.0599407228128594
aF1.3524726303559307
aF1.0647405980046898
aF5.929750585634527
aF2.962854756901274
aa(lp12
F1.166444835623722
aF1.261430416264101
aF1.154182021841486
aF1.4314108189158747
aF1.6868971039986098
aF2.5574824367129776
aF4.8945587719883115
aa(lp13
F1.8815190844178802
aF1.2363981041020093
aF1.7443845711161008
aF1.9131379129628794
aF1.0674169677630494
aF2.9057780152300934
aF4.799475657084425
aa(lp14
F1.0963707858850134
aF1.1025284987184965
aF1.0021352984619551
aF1.7226230534891727
aF1.163541959390236
aF2.412446696907129
aF4.321260075674031
aa(lp15
F1.9223985211505423
aF1.2062857170355552
aF1.7456171206232787
aF1.3757702219636636
aF1.4705618619561274
aF2.9506707080225505
aF4.05529589348182
aa(lp16
F1.9021893685506575
aF1.228479082573775
aF1.9451949887274393
aF1.0142590568249246
aF1.9142117163234043
aF2.635974943315524
aF4.692927929261179
aa(lp17
F1.9223900747820175
aF1.9147213775108258
aF1.8676995209992038
aF1.2965954430485664
aF1.367334789561697
aF3.9416091669707636
aF3.5507641696800385
aa(lp18
F1.993980461165339
aF1.0411009189846452
aF1.5236158594625682
aF1.4491859749337892
aF1.1364503161398756
aF3.320948106174606
aF3.3916593109992204
aa(lp19
F1.991611768428506
aF1.2161366485264966
aF1.2688502311691405
aF1.0672090746083058
aF1.7562858425473848
aF4.2916852204176985
aF4.223475169658694
aa(lp20
F1.256312520523029
aF1.2649858027802554
aF1.6157944357540002
aF1.9818216510672668
aF1.6781651688591244
aF1.9671501275936143
aF6.74385539061096
aa(lp21
F1.394408988053736
aF1.9319875395438353
aF1.93611650072984
aF1.6488416398430497
aF1.5403329280428664
aF2.9321336173611963
aF5.091304282493427
aa(lp22
F1.359617082632481
aF1.2551807717392065
aF1.752836678398422
aF1.740051147029058
aF1.950400593027531
aF1.9534263650042134
aF6.831840467559285
aa(lp23
F1.9569828506930496
aF1.0767421577845813
aF1.0181224517286054
aF1.8143802906225366
aF1.1249596291631778
aF4.900349210241382
aF4.557510006246475
aa(lp24
F1.6996036383587367
aF1.654240247687497
aF1.682572537671666
aF1.2199996897507508
aF1.155610050952474
aF3.343192164764269
aF2.823833832854308
aa(lp25
F1.0523918650317032
aF1.7734434294497903
aF1.1689644591697497
aF1.836735239426294
aF1.0256636588030894
aF3.6379465617491453
aF4.425582280739706
aa(lp26
F1.8247235750337008
aF1.8197811093799192
aF1.2398302619312638
aF1.955943102389701
aF1.1350592159251127
aF5.356555340885823
aF5.11407284344238
aa(lp27
F1.8019034962610214
aF1.2182209373035704
aF1.4353509549757908
aF1.4484307334100577
aF1.035706267050719
aF3.296001194357568
aF3.170639061094933
aa(lp28
F1.8067116046032583
aF1.5552910800582176
aF1.2400681343956825
aF1.1015030261048184
aF1.0952791512709295
aF4.582923315488853
aF2.41294533572684
aa(lp29
F1.0583405480629267
aF1.547645959134432
aF1.4376808196725628
aF1.9033484871636226
aF1.3279279997610853
aF2.4451134649621977
aF5.386128236137528
aa(lp30
F1.6200619736809647
aF1.3036679886516915
aF1.7536368765347956
aF1.5337128517871572
aF1.9591452274055956
aF2.465818939521149
aF6.1905251338032175
aa(lp31
F1.4482907451281397
aF1.1115482524716778
aF1.3562673184952998
aF1.9541828990219638
aF1.6542429305149724
aF2.457543254595657
aF6.55535047598865
aa(lp32
F1.4603954016086313
aF1.2535879882361822
aF1.4700277487413116
aF1.4125084753916806
aF1.8631474423129406
aF2.519841939352077
aF5.466498584850583
aa(lp33
F1.3076247788524544
aF1.8393420817317325
aF1.4620024330231531
aF1.034519242473491
aF1.3712152298698514
aF3.4836206430700907
aF2.950461269674955
aa(lp34
F1.3441873695147941
aF1.270316297306201
aF1.5981799815875548
aF1.4512470329440372
aF1.1813726964396887
aF2.140274073616562
aF3.5017593985220525
aa(lp35
F1.5887986136609857
aF1.5105917246954415
aF1.1683631302240594
aF1.8165398686601761
aF1.2999326005967249
aF4.113591287811119
aF4.989641860526094
aa(lp36
F1.0259814456008358
aF1.4331685548707327
aF1.0492323635611074
aF1.1341587377085092
aF1.0723560330495867
aF2.9608408406728643
aF2.436263503938405
aa(lp37
F1.4743808389160458
aF1.329336444538074
aF1.9415348336090295
aF1.060326150538371
aF1.29770736995327
aF2.0298035207610927
aF2.8083359635465532
aa(lp38
F1.1269211983057077
aF1.325316508571393
aF1.040959923173581
aF1.1343301635189196
aF1.8772283771089462
aF2.9073311735729344
aF4.810691299691947
aa(lp39
F1.5639663371636063
aF1.2218011185997992
aF1.640633556673492
aF1.89309017251894
aF1.628000309778585
aF2.4007729582094237
aF6.234175409926959
aa(lp40
F1.0310307232790676
aF1.9373189663361186
aF1.0874341701108805
aF1.4388610733568303
aF1.0783906747182546
aF4.428984541822809
aF3.233247635740862
aa(lp41
F1.7008316556952068
aF1.5392630747097238
aF1.164694181366807
aF1.4734470834511209
aF1.4180165953637576
aF4.518060808034959
aF4.181817372457637
aa(lp42
F1.801182754535449
aF1.853496250183658
aF1.207275651846718
aF1.7000611693136194
aF1.8532410826117718
aF5.532876981709293
aF6.324710489688043
aa(lp43
F1.6887659269537
aF1.2318079103121458
aF1.3024684156114659
aF1.8455200225612158
aF1.0528698529184655
aF3.354615767704534
aF4.5144790808589015
aa(lp44
F1.0222815752123053
aF1.8738385855043527
aF1.2384469327859058
aF1.7820694049431232
aF1.3132395941184942
aF3.67906814811513
aF4.900369595594844
aa(lp45
F1.696069103427054
aF1.4159396680173049
aF1.71358145010534
aF1.2058346433586566
aF1.1081017141633975
aF2.8487327210298186
aF2.6819265960557583
aa(lp46
F1.160642573269663
aF1.566770997091654
aF1.16364798355323
aF1.4315540594563745
aF1.9613636666901102
aF3.267192994744435
aF5.896294458158099
aa(lp47
F1.9142758292924242
aF1.835333330201281
aF1.763581265399569
aF1.7057500733561939
aF1.7336706952625156
aF3.987851607148651
aF5.915197392366675
aa(lp48
F1.2227583642002893
aF1.830063216831359
aF1.0578330509091078
aF1.7958671677368843
aF1.844607501422015
aF4.57942715124822
aF6.627715718457667
aa(lp49
F1.8083069535189455
aF1.8179450040678753
aF1.1580087976430056
aF1.2059280777230224
aF1.6342733936758513
aF5.677761766009696
aF4.125112053917528
aa(lp50
F1.3054570137023727
aF1.3253835174390667
aF1.4950998517296537
aF1.8893783832156654
aF1.0286843048694858
aF2.3148015692196506
aF4.627942074047459
aa(lp51
F1.3002047442059546
aF1.2101159065674842
aF1.7694786568681218
aF1.5296228454930252
aF1.882784553276366
aF1.7829618186903342
aF5.8846237235102645
aa(lp52
F1.86917243218773
aF1.4427240166891013
aF1.7155063357932718
aF1.879771291513631
aF1.5315626563080103
aF3.249919894352392
aF5.879224278596073
aa(lp53
F1.0501866180004131
aF1.10667871852544
aF1.0881483270225227
aF1.2508844923808142
aF1.9143180143097565
aF2.139073930328322
aF5.229325473189657
aa(lp54
F1.8055263294416277
aF1.702326381802576
aF1.82414917254121
aF1.00569767892818
aF1.272930444054447
aF3.3757329330197052
aF2.6317797368021805
aa(lp55
F1.6572486432947804
aF1.1275881993417185
aF1.297899466281667
aF1.5208548190263005
aF1.7903751110560782
aF3.0957160530376
aF5.518442418844586
aa(lp56
F1.5951774308527564
aF1.169060465545451
aF1.5614825715749694
aF1.9752990470462555
aF1.4218707826022086
aF2.504858830450007
aF5.923522847679662
aa(lp57
F1.3793259694732645
aF1.254674965204138
aF1.026730354756829
aF1.540406148474708
aF1.5174338117418316
aF3.386234158039284
aF4.675456475276029
aa(lp58
F1.3811093019452634
aF1.488241855541088
aF1.3778090869164101
aF1.1001624510960177
aF1.0111281364151554
aF2.9919433422594413
aF2.2327375270519827
aa(lp59
F1.0337382899576935
aF1.02257736619941
aF1.5410755001445802
aF1.2424674672346407
aF1.764992074136197
aF1.3719505123464888
aF4.658922428900058
aa(lp60
F1.9076175259638966
aF1.7213703655341914
aF1.5838381529890202
aF1.436938799201621
aF1.7611936543878692
aF4.168431318720545
aF5.166596200907094
aa(lp61
F1.468557150709791
aF1.0019437545834684
aF1.0862761621648025
aF1.9934342571089183
aF1.2193675068097904
aF2.909528444360891
aF5.460637254078909
aa(lp62
F1.5920750135554407
aF1.0154393612913202
aF1.016086314003096
aF1.7985387096065102
aF1.3784207353444184
aF3.5093671631093493
aF5.134785213580498
aa(lp63
F1.3205932647664476
aF1.779292114947923
aF1.6402675924392596
aF1.2235596747299007
aF1.8643235873623887
aF2.9933207385758758
aF4.972800716020906
aa(lp64
F1.0139913889188537
aF1.8153698723919136
aF1.0791242455295569
aF1.7193098591569866
aF1.4017838443650672
aF4.00671778833774
aF4.921024338117324
aa(lp65
F1.0051596197586181
aF1.8833205405823747
aF1.2274952347182537
aF1.2336658095892648
aF1.984988049654345
aF3.7126352843388424
aF5.462108887020097
aa(lp66
F1.8351119980703543
aF1.9365191674159044
aF1.5244408061013093
aF1.4240901000668291
aF1.346600423441053
aF4.669084232554933
aF3.841365313519974
aa(lp67
F1.4850943648016361
aF1.0313501626462296
aF1.422201657137379
aF1.8214140399481091
aF1.3160132288107587
aF2.2986813536247963
aF5.049439923325011
aa(lp68
F1.0691872681580168
aF1.074550414222677
aF1.8041591615892933
aF1.8513641664871459
aF1.0688886641148487
aF1.2736237777786565
aF4.57007225322587
aa(lp69
F1.2759161101480443
aF1.0533688027908377
aF1.2089413304695873
aF1.4849874936892524
aF1.819249568058936
aF2.2644173756264725
aF5.514856847296112
aa(lp70
F1.3376967666466628
aF1.1638617937772011
aF1.9835511508284664
aF1.4994543058684484
aF1.187325956154988
aF1.5850394950480953
aF3.658106141546787
aa(lp71
F1.9347750828495291
aF1.814502433566105
aF1.3978980955367264
aF1.3555308494430314
aF1.180111678096588
aF5.033109155164359
aF3.230127456571691
aa(lp72
F1.887599249843511
aF1.3226199868933808
aF1.4523594817178744
aF1.434373073445094
aF1.2234823106471546
aF3.657740817346469
aF3.5543350782908254
aa(lp73
F1.9139740139870929
aF1.766981426217928
aF1.9060984260356857
aF1.4037609827230053
aF1.5888725961374996
aF3.559900052448797
aF4.495061023372176
aa(lp74
F1.1698957011514897
aF1.166271339556681
aF1.441617795507272
aF1.3490922272352508
aF1.6236016542963392
aF1.8929044838017233
aF4.456132169420378
aa(lp75
F1.7134088595676884
aF1.492571697742155
aF1.9844480737791315
aF1.7226858092593254
aF1.3153772660267768
aF2.6020031771920507
aF4.697863749403535
aa(lp76
F1.203752669141556
aF1.7569965369510456
aF1.8194975088278222
aF1.001083376846709
aF1.1948731802565442
aF2.4930274965013055
aF2.4298898442951975
aa(lp77
F1.6290948808031773
aF1.4626215150548756
aF1.6027099461846173
aF1.6061831833687747
aF1.9058241337960844
aF2.990692007852808
aF6.211990047496247
aa(lp78
F1.482178522881913
aF1.8712215887592738
aF1.0233352068998074
aF1.3498915196509487
aF1.0503578278567356
aF5.568384014847152
aF2.925458681365467
aa(lp79
F1.7234434738120537
aF1.3998769374651183
aF1.4944005344229687
aF1.260823553349963
aF1.6360107744011287
aF3.29892337021658
aF4.266207286638608
aa(lp80
F1.819356289113077
aF1.2301513160867281
aF1.156179273089439
aF1.0813309110342213
aF1.7499056315436645
aF4.171783459079616
aF4.231446258466331
aa(lp81
F1.9747515181410389
aF1.0970971778723912
aF1.316747125969648
aF1.5648225770083746
aF1.4241501717528462
aF3.875661222604056
aF4.476873409218792
aa(lp82
F1.7527258074140972
aF1.1628247317746334
aF1.6427529933530087
aF1.8486665301297194
aF1.638415537409804
aF2.693167585573491
aF6.101973412847713
aa(lp83
F1.906228807743501
aF1.5031187576432183
aF1.7886836327700921
aF1.5803252770978746
aF1.6650239973548808
aF3.294643143753508
aF5.2697328932021
aa(lp84
F1.4058048405595918
aF1.1236670590359994
aF1.6345868345119268
aF1.58416605247688
aF1.3575096265056046
aF1.9814884354372664
aF4.352414467875567
aa(lp85
F1.1037552978684095
aF1.5368380312796268
aF1.0927316480212945
aF1.4430502445318134
aF1.3390166236140681
aF3.276327631255952
aF3.875359526558145
aa(lp86
F1.0159473436510487
aF1.1601102247253512
aF1.44079731788807
aF1.5889974847833699
aF1.7276349976356462
aF1.6504783213156045
aF5.509635691703394
aa(lp87
F1.1154232622756544
aF1.2200597503282808
aF1.1369957230751586
aF1.5171906476463108
aF1.6867426510770294
aF2.4034521792270014
aF5.146968232267797
aa(lp88
F1.3653451373181216
aF1.9431130845050961
aF1.074566592278263
aF1.9333790277324119
aF1.879502683416045
aF5.248493526320877
aF7.27048480184364
aa(lp89
F1.0233217311410931
aF1.1999374534747873
aF1.741065591531163
aF1.577347583768343
aF1.154197616080987
aF1.4284569574946115
aF3.8201975369868637
aa(lp90
F1.5962876445909016
aF1.487389747815337
aF1.9313553895595295
aF1.4808939671916672
aF1.5843752809707352
aF2.4648298971353095
aF4.703291973015771
aa(lp91
F1.9702539183380647
aF1.9036066654816097
aF1.9703276367422937
aF1.6162116236941744
aF1.8790562421314947
aF3.8093252612556223
aF6.142992373657494
aa(lp92
F1.9216234687292546
aF1.319817579480418
aF1.4424199256312524
aF1.061742576492354
aF1.8522296080296823
aF3.767665089830379
aF4.558051819598413
aa(lp93
F1.6051304698055393
aF1.7442275051481217
aF1.440365927526091
aF1.655914801719425
aF1.1273715836755254
aF3.9009346912724814
aF4.013020518232544
aa(lp94
F1.4864312826609842
aF1.777560419451471
aF1.8024029128207126
aF1.93457121695748
aF1.33703143057705
aF2.978911632178298
aF5.530218839831258
aa(lp95
F1.0896378553939405
aF1.7668703578930414
aF1.9441370504712965
aF1.1047222144180386
aF1.1886344580654105
aF2.2164803229607557
aF2.633263045929147
aa(lp96
F1.5024393530589544
aF1.7280780301015435
aF1.4406654209197576
aF1.4360422559873616
aF1.5688265545807676
aF3.639691500606856
aF4.523434119339033
aa(lp97
F1.9507604037613293
aF1.7003828128776919
aF1.540458787064169
aF1.8382844795368962
aF1.5942708324802377
aF4.347255453666322
aF5.920989315003467
aa(lp98
F1.9499367329971529
aF1.8288094397660373
aF1.3432907832941519
aF1.5973036360172856
aF1.188171907113397
aF5.320364971270693
aF3.963131386487528
aa(lp99
F1.5568896963936103
aF1.4960784678288515
aF1.7130047838488598
aF1.2480726360039156
aF1.6241761745097563
aF2.7216248037337993
aF4.1956335505869085
aa(lp100
F1.8314332405209415
aF1.8019322787804253
aF1.6622668136266507
aF1.658647738279191
aF1.3356854790117654
aF3.9711480718272214
aF4.535168018541565
aa(lp101
F1.893285473593874
aF1.8506567602717179
aF1.107011938758435
aF1.6466351304476476
aF1.5425015582231962
aF6.331874195252514
aF5.09071830994533
aa(lp102
F1.387458472591386
aF1.35702067055953
aF1.90037636548175
aF1.1960452719848267
aF1.2802893144705463
aF1.982000082671324
aF3.0696650213847194
aa(lp103
F1.0298981161814553
aF1.2276286055609749
aF1.8061731751101817
aF1.777668169848015
aF1.3826904502568476
aF1.4216588742931882
aF5.071937003322275
aa(lp104
F1.6765361978120827
aF1.9365902245492064
aF1.0840535824327633
aF1.6493717355884623
aF1.9324242174860797
aF6.052427137106654
aF6.454690478484784
aa(lp105
F1.3258535061507764
aF1.7088236801931407
aF1.9253800812678836
aF1.2927602286824924
aF1.43901201565002
aF2.4296324322004232
aF3.741984590048343
aa(lp106
F1.3582968962710773
aF1.8417774686525399
aF1.5062761081535054
aF1.3867932741695363
aF1.2994768923561193
aF3.4768623588379204
aF3.61183577904938
aa(lp107
F1.582558306920935
aF1.425614108249043
aF1.629934447794655
aF1.9279819738870168
aF1.699962099956401
aF2.7834655476983583
aF6.606985632921454
aa(lp108
F1.5155764333135766
aF1.0187239695469312
aF1.9580318021822576
aF1.98697580825544
aF1.9217512338824676
aF1.7031237427442723
aF7.6412006675211455
aa(lp109
F1.2966194959345547
aF1.7788813578391633
aF1.0318102610486581
aF1.0824193676446798
aF1.9276466900567826
aF4.69625200042159
aF4.887453449139178
aa(lp110
F1.4609182040525728
aF1.9120301327148437
aF1.6311040243019508
aF1.7031924854876128
aF1.4730689670446386
aF3.54982952716317
aF5.070796824291431
aa(lp111
F1.5186585656344045
aF1.7139033573038227
aF1.92521223027616
aF1.8213330890997157
aF1.5665683317255332
aF2.7237457121285127
aF5.771390559414833
aa(lp112
F1.2685992448426884
aF1.5328097133224898
aF1.1678156508667423
aF1.5933991064930284
aF1.5845901208558804
aF3.3899611281395226
aF5.049846563686835
aa(lp113
F1.3301650542329289
aF1.3528055204155867
aF1.581629635993833
aF1.9852726416388604
aF1.5090367224360313
aF2.2757678318967787
aF6.218499291300219
aa(lp114
F1.0115510451581509
aF1.940501745899829
aF1.28296290609148
aF1.4968359686977877
aF1.0879374614691006
aF3.7325962582891496
aF3.424125837255275
aa(lp115
F1.186309904483919
aF1.834023685670788
aF1.678082571985489
aF1.8278621197343599
aF1.7100477846949087
aF2.8431104337333903
aF6.265343354699752
aa(lp116
F1.0217919253659908
aF1.6922644059447651
aF1.6035544676743907
aF1.894779440523905
aF1.8682957358166665
aF2.4369721373033073
aF7.080718084702822
aa(lp117
F1.2320555737137386
aF1.9911214668963562
aF1.3065600574141862
aF1.5326698144745965
aF1.9913227910581348
aF4.196152791862516
aF6.314443218389154
aa(lp118
F1.0295444718290792
aF1.7347639797385577
aF1.2806638465659488
aF1.0418962830804315
aF1.7530153771958608
aF3.177545689123677
aF4.1586107773819645
aa(lp119
F1.5632304278590434
aF1.194403308310965
aF1.3625017908407582
aF1.2322280154828198
aF1.9426466586861268
aF2.840575079978654
aF5.2922619226451015
aa(lp120
F1.9683324495972856
aF1.478337363626026
aF1.2500499722974148
aF1.0794526457137938
aF1.1964004115488345
aF4.847657395402617
aF2.5965919590927298
aa(lp121
F1.022996966566299
aF1.3009575377385043
aF1.9828961590155947
aF1.4266066390621903
aF1.14915983826462
aF1.381319589605872
aF3.355774836496686
aa(lp122
F1.0618414917612076
aF1.7808506192835596
aF1.0475090198662143
aF1.212001998628157
aF1.004252034792142
aF4.103961111835921
aF2.477470994062805
aa(lp123
F1.2010830301800834
aF1.5863120631673986
aF1.9258451910061374
aF1.472559940735973
aF1.4423967889423959
aF2.0557137331836364
aF4.248941275811667
aa(lp124
F1.285105059683705
aF1.5322651500523943
aF1.5899482332555515
aF1.209913199667135
aF1.0757868460311153
aF2.515384728156074
aF2.6212072888223394
aa(lp125
F1.5213733409285721
aF1.571022036603582
aF1.4715142450988288
aF1.7248606263656763
aF1.2040665743736958
aF3.250180620345283
aF4.4249204959106
aa(lp126
F1.7984120990728887
aF1.8592629407404275
aF1.2386345488246016
aF1.684262034568456
aF1.5511841017087034
aF5.402033042960118
aF5.242910718482512
aa(lp127
F1.820799109301501
aF1.2768980260007128
aF1.9690027618623187
aF1.726457117005832
aF1.5020466566774004
aF2.5118187038802575
aF5.236798335695846
aa(lp128
F1.6385097343792985
aF1.9481368476190177
aF1.0170843802113363
aF1.5944868366772216
aF1.7190332071680856
aF6.371104947418657
aF5.497463439683527
aa(lp129
F1.6865442822860421
aF1.1263019355951487
aF1.9516838120267448
aF1.3400494226287378
aF1.7021154993709782
aF2.1074047142738492
aF4.692929628286528
aa(lp130
F1.4967314073721336
aF1.7543831576536615
aF1.823241925723741
aF1.5799797752521751
aF1.069330355714269
aF2.916818165840487
aF3.639803499857919
aa(lp131
F1.4098895770743716
aF1.837625745989719
aF1.71167779878057
aF1.9849998830726512
aF1.9592464181697657
aF3.134151185280956
aF7.778871062909495
aa(lp132
F1.286316857288789
aF1.9251036084228712
aF1.8731245035162183
aF1.3326266058339467
aF1.5776984815835986
aF2.861867938006851
aF4.265026169367697
aa(lp133
F1.4631148141335086
aF1.4723515894729906
aF1.3413306269732042
aF1.2771914542977363
aF1.4721909145300878
aF3.212126880367315
aF3.7985640997561028
aa(lp134
F1.2472098658370276
aF1.6912731896891309
aF1.3965574074822333
aF1.8250787298553475
aF1.7417675602972766
aF3.1620164183323354
aF6.364666604274335
aa(lp135
F1.5465518372392384
aF1.9330667877459795
aF1.6839088272503067
aF1.9888805865811592
aF1.1958039719942097
aF3.6394902692933235
aF5.385593127116545
aa(lp136
F1.0433393936495803
aF1.0902256009009004
aF1.0509729416977156
aF1.983655001750471
aF1.704378903328481
aF2.1667055933165633
aF6.839794612080857
aa(lp137
F1.4113805754794422
aF1.8512021606519795
aF1.9276981088272023
aF1.1548005075655425
aF1.9569991330674745
aF2.8110960651095342
aF5.163409819100481
aa(lp138
F1.0826099502025395
aF1.8838719740306307
aF1.778165303486034
aF1.0499184733533542
aF1.58136322464358
aF2.654993835252668
aF3.6030384489437797
aa(lp139
F1.8479523305495131
aF1.5797882038948803
aF1.3174086085373848
aF1.0276875714369558
aF1.6727722395150282
aF4.4865795978902305
aF3.8543087097781106
aa(lp140
F1.3936967327212613
aF1.2888024273373173
aF1.668308566421058
aF1.657686705419396
aF1.2458638768643064
aF2.159913550787961
aF4.300102012999571
aa(lp141
F1.9847783140047532
aF1.867018183680805
aF1.3375252800611368
aF1.134908534918194
aF1.4757229767638327
aF5.551373095242678
aF3.465775686778869
aa(lp142
F1.6666410805551095
aF1.6464602502266406
aF1.525008528211084
aF1.0095378686155396
aF1.9130616185449087
aF3.5990119041554505
aF4.678971464518472
aa(lp143
F1.747241136015215
aF1.2390278381192839
aF1.2902179178270368
aF1.1744418808548516
aF1.4471220407723917
aF3.556020659475406
aF3.473475932395133
aa(lp144
F1.887152209567309
aF1.3273804868447443
aF1.579149576558767
aF1.3690306215569776
aF1.3114023954831988
aF3.3709804935206304
aF3.5940210856397568
aa(lp145
F1.3431411200935575
aF1.3093311389141988
aF1.4949831870672567
aF1.5304430777441485
aF1.450215358774045
aF2.353455296523173
aF4.445380601039114
aa(lp146
F1.786742484397764
aF1.115267504940344
aF1.0201130422352458
aF1.2670820619872072
aF1.5311000588226524
aF4.348802661523777
aF3.9497643419364827
aa(lp147
F1.3149909734232494
aF1.8371392078690487
aF1.018287543182128
aF1.9931285195112505
aF1.4873841295573325
aF5.012613346249491
aF6.184872844148133
aa(lp148
F1.7218949364693312
aF1.2235655474899816
aF1.4188490274257846
aF1.5365975360297381
aF1.2007360011941137
aF3.1448270640454554
aF3.802898932296293
aa(lp149
F1.6679358392421255
aF1.805604888422982
aF1.2161768594854485
aF1.027151884272611
aF1.2174279401279429
aF4.96820748544887
aF2.537171782768941
aa(lp150
F1.884489975068223
aF1.1334974459795033
aF1.3918203842460644
aF1.4588746234615675
aF1.2058573885700703
aF3.47467171835852
aF3.58240720854916
aa(lp151
F1.0544227715107815
aF1.7792820908208076
aF1.436047831675464
aF1.7858820099286985
aF1.928467604836724
aF2.9787671729606147
aF6.908361856291659
aa(lp152
F1.7276573462392277
aF1.4329920684829922
aF1.9364480141657654
aF1.0409272432330958
aF1.9391299432649927
aF2.60180812368467
aF4.843754462571747
aa(lp153
F1.438909118676443
aF1.9209236726624774
aF1.6071480804546683
aF1.3748979053928143
aF1.741496312530952
aF3.5842417248668696
aF4.923153656812451
aa(lp154
F1.7026714447596611
aF1.0065988428490098
aF1.878859056703147
aF1.9222494840578292
aF1.4078199063563726
aF2.0822909867916994
aF5.676999967693856
aa(lp155
F1.0393026964676546
aF1.0955297625315676
aF1.0792704333456586
aF1.9078904079865722
aF1.1583365146631739
aF2.1128490923341046
aF4.981789290089198
aa(lp156
F1.1678437593164799
aF1.681773590781976
aF1.4628052525449315
aF1.561242931591146
aF1.142270246393845
aF2.8658780446219247
aF3.7422608072399717
aa(lp157
F1.404684314663679
aF1.6246089410327356
aF1.5374772467563675
aF1.6865409198616197
aF1.3046057933901833
aF3.000039346843474
aF4.546416550514908
aa(lp158
F1.486036041146035
aF1.8980126257497405
aF1.0674180406466105
aF1.5980438485655921
aF1.395204539247279
aF5.443748205314592
aF4.500339848274541
aa(lp159
F1.1969107034411341
aF1.2661268574299471
aF1.4552728072072196
aF1.301249192060539
aF1.5817815319108548
aF2.0859817046558256
aF4.195282274532456
aa(lp160
F1.8649781261390648
aF1.2948337175689597
aF1.7943941558443122
aF1.0738144294144658
aF1.8034253759137515
aF2.8726897879943123
aF4.4054205153083705
aa(lp161
F1.1673567540133254
aF1.9805477897782389
aF1.3722590867188875
aF1.3990950663538664
aF1.4981946125256294
aF3.8515258451472776
aF4.20205410169655
aa(lp162
F1.1790960593045559
aF1.946751345663777
aF1.758196342584451
aF1.3298987283708632
aF1.2511719579699485
aF2.9462627088034936
aF3.334061896132794
aa(lp163
F1.9915941291650185
aF1.6648259577214075
aF1.8159310634700594
aF1.2430500032166807
aF1.6943597484517077
aF3.7105442934335633
aF4.416028267670324
aa(lp164
F1.7523404622795726
aF1.995165850055232
aF1.2649669184541132
aF1.0733306227661794
aF1.9635205609730624
aF5.5743622715336585
aF5.007451619131604
aa(lp165
F1.701198004139298
aF1.7179461663790387
aF1.4163786522001014
aF1.3860770106710205
aF1.6411734921032335
aF4.127013401948779
aF4.614659910693034
aa(lp166
F1.4354151363726615
aF1.1508404873756346
aF1.8822786485182874
aF1.1627854955480417
aF1.2159350584292334
aF1.798272771024236
aF2.830568174974208
aa(lp167
F1.051847190720878
aF1.940241162667614
aF1.0000809302283313
aF1.8900509820421196
aF1.7545212547562614
aF4.870524109308918
aF6.6506375481098665
aa(lp168
F1.414924351441285
aF1.9052477956416438
aF1.6592089851901206
aF1.6386453540268446
aF1.1734498038654961
aF3.394376557365101
aF4.062143038465734
aa(lp169
F1.9195271036365948
aF1.1205486359502546
aF1.0225393099740943
aF1.3835188934641187
aF1.9064383335653994
aF4.831318951689623
aF5.548631648259796
aa(lp170
F1.0403880091515232
aF1.7823422518207215
aF1.284805237859036
aF1.1046876738843725
aF1.6214291845506241
aF3.315016927630963
aF3.8493674573445675
aa(lp171
F1.2771971576868504
aF1.7297446045938212
aF1.110708918435952
aF1.214269784669823
aF1.0070640035795053
aF4.162430768301605
aF2.48862901726768
aa(lp172
F1.2709350379401672
aF1.6913548596481243
aF1.134891050426637
aF1.6627887516152398
aF1.6948945321926843
aF3.9439531488389696
aF5.637533907754825
aa(lp173
F1.1353397523142652
aF1.6766295434069856
aF1.1975536399579032
aF1.6448982161786128
aF1.7158086361953007
aF3.4237155165377486
aF5.6496894176299595
aa(lp174
F1.1259073189161082
aF1.6221643104391745
aF1.8016201048945593
aF1.6562760759601869
aF1.255884488140924
aF2.164210051974113
aF4.320496287351065
aa(lp175
F1.2787755028003327
aF1.1369051858076182
aF1.458448684225837
aF1.7451226410202048
aF1.6895294065502373
aF2.00748934106833
aF5.899962647799331
aa(lp176
F1.7792654035262503
aF1.2989348912812089
aF1.4936235245962886
aF1.793852287037435
aF1.856442991460613
aF3.249156931486385
aF6.664286608252666
aa(lp177
F1.4223230693822326
aF1.2007049988933098
aF1.453866331470921
aF1.1491190237951279
aF1.6036378859838019
aF2.383090751237729
aF3.8921290002104643
aa(lp178
F1.4243111473338375
aF1.0192271567447362
aF1.7577506962213376
aF1.166250229209929
aF1.5573309301377618
aF1.7451201971130557
aF3.7854192230959587
aa(lp179
F1.0769209757362672
aF1.1522568795796262
aF1.6301410285605846
aF1.324247983274936
aF1.6207064117751306
aF1.5259138080315386
aF4.380321994376755
aa(lp180
F1.7291836050213625
aF1.544090925777032
aF1.526807756317452
aF1.0900417115544694
aF1.407359399725821
aF3.5199537759121986
aF3.1688514129252203
aa(lp181
F1.1918627854517045
aF1.441244545239961
aF1.0996310447679896
aF1.1209056942264257
aF1.1579024116537209
aF3.1808148334577258
aF2.5971675702627284
aa(lp182
F1.3784449669345293
aF1.0991873476892005
aF1.180063129785144
aF1.9721257213953565
aF1.4272594864671726
aF2.634031412161053
aF5.926349502699693
aa(lp183
F1.476787666087576
aF1.712164116820868
aF1.5883868388408104
aF1.4725964955545352
aF1.2940144284039046
aF3.2186163021650067
aF3.843013779636982
aa(lp184
F1.0814794249911825
aF1.0807737791203862
aF1.230413983374822
aF1.6468048212251483
aF1.877883385493487
aF1.8999050237559711
aF6.238412128722873
aa(lp185
F1.8149294083533545
aF1.2811309535462172
aF1.0769024877908944
aF1.2274266463036279
aF1.2133930701066846
aF4.5828339458701235
aF2.978898914639097
aa(lp186
F1.3317543427152363
aF1.4514178958112702
aF1.323667125618552
aF1.038552947668303
aF1.8700649942735845
aF2.9313892160076804
aF4.5757353079179826
aa(lp187
F1.0773207610162356
aF1.1612428777685024
aF1.9415198236736089
aF1.0004129423793846
aF1.4145260184235233
aF1.292340676973939
aF3.001709912077284
aa(lp188
F1.4644871372176502
aF1.84018252088641
aF1.3246118204962185
aF1.5181532127724946
aF1.1562529778368147
aF4.17555860492006
aF3.6417101262079488
aa(lp189
F1.9688115496802836
aF1.6174396424348518
aF1.8631430967145768
aF1.2376960373031058
aF1.5992794520478433
aF3.484611529046097
aF4.0895862464982615
aa(lp190
F1.9481269799664453
aF1.8712134169158436
aF1.6751767941385713
aF1.5941509128791584
aF1.8977301472301997
aF4.355742275830183
aF6.14269684473981
aa(lp191
F1.6659119637663462
aF1.6231215265102266
aF1.4913891897227056
aF1.267200461620296
aF1.7821026612683215
aF3.627347038667066
aF4.781686905230325
aa(lp192
F1.048586391220657
aF1.2712827768896013
aF1.2583120593938741
aF1.7411623125996751
aF1.606272464406139
aF2.1582033633035667
aF5.61175742872682
aa(lp193
F1.6043726518794086
aF1.9031496716991225
aF1.892992419429013
aF1.503165752400915
aF1.6024778209906452
aF3.2731194353414006
aF4.827442445957935
aa(lp194
F1.2189882511400527
aF1.4765968133605427
aF1.8912737494683836
aF1.5608756889196087
aF1.5051122570408344
aF1.9385192157795994
aF4.701695822554818
aa(lp195
F1.5861636636870147
aF1.7763356063436775
aF1.6467604560145142
aF1.7812044456100087
aF1.5399052534954567
aF3.443903048346813
aF5.543997466803765
aa(lp196
F1.1781498061654683
aF1.3392835572252264
aF1.878447360095818
aF1.7268932332750686
aF1.817751913992333
aF1.693801742870926
aF6.286382259954011
aa(lp197
F1.0128533977312326
aF1.6410448700697944
aF1.500595587141105
aF1.380169364311665
aF1.378476649198031
aF2.478282824997001
aF3.8050653465686968
aa(lp198
F1.522217100482107
aF1.618399541633884
aF1.2373824049473228
aF1.4414408939879904
aF1.2284592904677114
aF3.9893584696406506
aF3.58686407919733
aa(lp199
F1.8852279145405908
aF1.0099840645755171
aF1.4970229298901252
aF1.4916780508712493
aF1.0941481958111496
aF3.0554990235154715
aF3.422263681847843
aa(lp200
F1.441354688524514
aF1.2062345353398363
aF1.9352219020005181
aF1.302303187508477
aF1.4655753377960001
aF1.8253746966828013
aF3.8439046629505995
aa(lp201
F1.5302160163143315
aF1.146339280257809
aF1.2088856801286183
aF1.932918296691799
aF1.7922861271986987
aF3.023987182690388
aF6.948462703434836
aa(lp202
F1.854531929513804
aF1.2692053177718845
aF1.328662340961027
aF1.0893804695373912
aF1.5417718754558765
aF3.800943746620992
aF3.563810323356238
aa(lp203
F1.2404490332755227
aF1.6938705960455154
aF1.94821810550273
aF1.3260832609492699
aF1.8890210830552805
aF2.262534871147974
aF5.3268974671971945
aa(lp204
F1.003685318080036
aF1.0419899772743346
aF1.6391445490401464
aF1.1343107074229346
aF1.4559365303883989
aF1.2769632377420825
aF3.4064119614937276
aa(lp205
F1.553386703211705
aF1.1280216708316027
aF1.0914530197955234
aF1.4268752934523277
aF1.2116179664813511
aF3.3766392806087926
aF3.503991199765071
aa(lp206
F1.0351308989882342
aF1.4772106853930547
aF1.095354454382862
aF1.3869929639344494
aF1.406561502961421
aF2.9704059485591436
aF3.90216474361676
aa(lp207
F1.340698441185248
aF1.7213343199602686
aF1.7935151887452159
aF1.4759788705810573
aF1.5184928209054063
aF2.654264754010901
aF4.484334073542992
aa(lp208
F1.7649210989679562
aF1.0614166779210696
aF1.8381354223492763
aF1.837715143922821
aF1.3503611353640432
aF2.3075295749048967
aF5.200672146104942
aa(lp209
F1.3349231912589272
aF1.754633138842615
aF1.374712639527829
aF1.6173406312908738
aF1.546443701473208
aF3.535835227466247
aF5.007278839450519
aa(lp210
F1.060872177827901
aF1.4588713260931963
aF1.1548765929108176
aF1.2667105385633555
aF1.2844072672559113
aF2.8174052048152456
aF3.254257616687264
aa(lp211
F1.8872965161945223
aF1.0655545664450345
aF1.4688951321986772
aF1.8286059210493835
aF1.8408649767903595
aF3.1978420863038903
aF6.732583477270236
aa(lp212
F1.4025544364474478
aF1.8083923585261474
aF1.1256880884892984
aF1.5256414301550807
aF1.3851200256540057
aF4.652658159155756
aF4.246139258873393
aa(lp213
F1.1420436117024597
aF1.2054461911099519
aF1.5342081289479914
aF1.443148891573636
aF1.667419141033195
aF1.7972555865563153
aF4.862965315134092
aa(lp214
F1.4979244682826336
aF1.8397377528485594
aF1.5964375601140048
aF1.8676357317507597
aF1.5921883166587012
aF3.525607798612644
aF6.023126862216664
aa(lp215
F1.358418809681048
aF1.9562397219655763
aF1.635437831533526
aF1.1609777537423733
aF1.4526991664596896
aF3.4682917338242776
aF3.4582042129173636
aa(lp216
F1.413948528621367
aF1.0501640169940871
aF1.4600070244760186
aF1.2566147629935598
aF1.4445079827721643
aF2.1247123145130047
aF3.6656839748658676
aa(lp217
F1.6839806823992611
aF1.6849067353879528
aF1.3197644165558242
aF1.729549834256507
aF1.8005332163494026
aF4.299783790548605
aF6.2332624923542355
aa(lp218
F1.2820450401664918
aF1.489900764966639
aF1.1714733426138326
aF1.687166980299617
aF1.8097209862962296
aF3.2979357138792635
aF6.121622467654326
aa(lp219
F1.844365766273683
aF1.7816575872123326
aF1.9923667754878718
aF1.0420666245481596
aF1.8065955467706136
aF3.3005914968961045
aF4.349690319608607
aa(lp220
F1.637239369001423
aF1.5123987528763208
aF1.2864236621744842
aF1.1142277205160138
aF1.1284976420488197
aF3.8617936572408964
aF2.5150103412760583
aa(lp221
F1.2124553963211833
aF1.1787156590404086
aF1.9909142339887276
aF1.886899375705803
aF1.9559013832940044
aF1.4362339894505032
aF7.38593947521035
aa(lp222
F1.9745573032923072
aF1.9130082748332051
aF1.4316027768331814
aF1.6042215375021986
aF1.553849336967693
aF5.279730750652254
aF4.9879745033808565
aa(lp223
F1.4963545940546228
aF1.6818687391151474
aF1.0862644420124745
aF1.0011036716944992
aF1.1939266908826194
aF4.665309229281532
aF2.4276695046821297
aa(lp224
F1.7725388438225442
aF1.1514272605100977
aF1.5992354159884874
aF1.2762055112190793
aF1.7678593857667768
aF2.793634160699273
aF4.754027314709637
aa(lp225
F1.9709337648668552
aF1.5709726868513374
aF1.9996879162031878
aF1.7594070515242337
aF1.8512791947693445
aF3.1767632523312535
aF6.52274782993903
aa(lp226
F1.0650856433109217
aF1.8791182493710503
aF1.492381245242084
aF1.758843119337072
aF1.03669091235159
aF3.1262070852073434
aF4.168257166191734
aa(lp227
F1.6094225563231364
aF1.341912583825183
aF1.3317769736173892
aF1.1235634057920632
aF1.556348293262837
aF3.2970763381673955
aF3.684614736777206
aa(lp228
F1.0803120810625186
aF1.9563231196804325
aF1.2416160433521248
aF1.8001274781291232
aF1.7437753481114058
aF4.022398363669841
aF6.281211402196572
aa(lp229
F1.219566145665571
aF1.9778196438169457
aF1.5773678350156106
aF1.6953415571512074
aF1.9180850116712354
aF3.4228618127415626
aF6.553233107401724
aa(lp230
F1.0220263136868875
aF1.4898683807184918
aF1.817622605242813
aF1.4372392920257102
aF1.47835287696836
aF1.795887423669604
aF4.251184011383192
aa(lp231
F1.2081906691822897
aF1.426788953745633
aF1.6029753073846522
aF1.492197980875775
aF1.2569626506095881
aF2.1806021562070974
aF3.8066099191572214
aa(lp232
F1.7828404214757645
aF1.3998089413567572
aF1.4199790614172136
aF1.005265572943498
aF1.2802898947316628
aF3.6183526788220584
aF2.6497010866974318
aa(lp233
F1.6860202220199163
aF1.8183520383524243
aF1.961253605829664
aF1.2427412481150149
aF1.3167677969850873
aF3.1352744520968163
aF3.278283240943425
aa(lp234
F1.5816777064478362
aF1.0992729245746524
aF1.3122700908857259
aF1.3654193663867482
aF1.4588226310755286
aF2.82724216268073
aF3.9925335150421164
aa(lp235
F1.443216917040797
aF1.6204016336727693
aF1.3119522861568012
aF1.9602194741490435
aF1.4116224465975038
aF3.5889845794890176
aF5.835138318571075
aa(lp236
F1.452424278016002
aF1.6735816322656378
aF1.9338689674941856
aF1.2964352345702976
aF1.1652472517028682
aF2.5391646723562125
aF3.0385454750364302
aa(lp237
F1.7630113432777943
aF1.7681150950189812
aF1.0850607610425453
aF1.2280494074072386
aF1.9678961297833037
aF5.74570587159561
aF5.380720524649375
aa(lp238
F1.1442612080934618
aF1.4967029185272347
aF1.909648051843355
aF1.1661594698053008
aF1.7745554282771616
aF1.858695027729961
aF4.508974877044521
aa(lp239
F1.1194347403615557
aF1.8193176430702307
aF1.787658545073175
aF1.4872004324857862
aF1.5089169964199072
aF2.5525293053815163
aF4.488595628470783
aa(lp240
F1.8193008854205222
aF1.8418381798931294
aF1.9462313484338885
aF1.7358686811901958
aF1.2487939026615615
aF3.443693165253524
aF4.572726289661683
aa(lp241
F1.8101004776052387
aF1.8613573799225267
aF1.4404963496773093
aF1.6953850423495693
aF1.705009241845855
aF4.679716846438985
aF5.781386956602428
aa(lp242
F1.2933332068591905
aF1.5642725061986886
aF1.7782727299989767
aF1.2156591204547216
aF1.7468203644576568
aF2.3166633487182673
aF4.529208482828729
aa(lp243
F1.607040578870354
aF1.876984454720888
aF1.6186698803140787
aF1.7800410658680457
aF1.0737963677773834
aF3.7720168514009305
aF4.321584835628549
aa(lp244
F1.451707847030163
aF1.3320055190974915
aF1.7356735003827044
aF1.8492210179461495
aF1.8043036452946868
aF2.2364196809937127
aF6.675130017637488
aa(lp245
F1.4089974177436158
aF1.6141351251514622
aF1.9053724034199426
aF1.5874733526740603
aF1.1221922778553015
aF2.409348386287148
aF3.7793871539282917
aa(lp246
F1.2795277719635272
aF1.030066374061608
aF1.61743479405003
aF1.9312923504860893
aF1.0916699948318098
aF1.6682144245469446
aF4.9216335206621675
aa(lp247
F1.6398014269321464
aF1.174535639804732
aF1.5944195458939654
aF1.5067036433008194
aF1.6203754997271456
aF2.551701463656532
aF4.89577262885196
aa(lp248
F1.4404241926540458
aF1.0066271294817977
aF1.524529772268703
aF1.637872999500368
aF1.3619452036740576
aF2.025621335027318
aF4.537522700303103
aa(lp249
F1.9627074982890529
aF1.9237149250584014
aF1.206023774158305
aF1.29145261508606
aF1.2723106233972825
aF6.262645893530383
aF3.2866241794222044
aa(lp250
F1.692741960240642
aF1.2210977686226565
aF1.6799620440045548
aF1.6233035913090381
aF1.6019007537222372
aF2.5931866258775726
aF5.201200574332692
aa(lp251
F1.14220305808396
aF1.2006142339012258
aF1.332078071694489
aF1.09358228970502
aF1.641508436892384
aF2.0615175813601962
aF3.890472172745352
aa(lp252
F1.4019933078121403
aF1.2266767858366747
aF1.5314023115996096
aF1.9319732854115492
aF1.108764593182962
aF2.266106787076569
aF4.961879698640074
aa(lp253
F1.3020507875526133
aF1.9957411262095408
aF1.2104701460902296
aF1.9873424463510698
aF1.383811724841088
aF4.691002842615533
aF5.864464888876322
aa(lp254
F1.813619550519681
aF1.3474482815564883
aF1.2604698706311588
aF1.448230420644553
aF1.3894184823556346
aF4.049944282238643
aF4.027855070391734
aa(lp255
F1.7394700573572823
aF1.513478916467888
aF1.2977858853798203
aF1.3742963622406852
aF1.5507199839887655
aF4.096495863398474
aF4.293422960010098
aa(lp256
F1.7581742698861813
aF1.16747686622741
aF1.6508577614837576
aF1.1737548222227117
aF1.0315051042737813
aF2.698099800229097
aF2.441703162833934
aa(lp257
F1.3293973415593303
aF1.7114816032354598
aF1.8229854018393568
aF1.6216761897449778
aF1.5446002788006417
aF2.5762502350374232
aF5.015623685656809
aa(lp258
F1.3972336909266685
aF1.8642665913066292
aF1.7470304274499378
aF1.1421475384707538
aF1.6014302966655252
aF3.10684452041585
aF3.869079994713034
aa(lp259
F1.2149014163195684
aF1.0598887272998088
aF1.329444659006392
aF1.2059947120460337
aF1.6681358662339054
aF1.9552145687472382
aF4.2371005136989375
aa(lp260
F1.8741623653801913
aF1.9240912459772983
aF1.848952687367168
aF1.8617282767635028
aF1.3494293652235827
aF3.901999085183328
aF5.286991788228523
aa(lp261
F1.1929967292348111
aF1.1690326942505203
aF1.9607576477679467
aF1.687849706847579
aF1.0516793413995518
aF1.4228574548045148
aF3.954866070032054
aa(lp262
F1.9644208041312505
aF1.9476920232143269
aF1.7631397792939125
aF1.1377348474685665
aF1.8897242918234756
aF4.340241994914877
aF4.865498482252058
aa(lp263
F1.9565348618530949
aF1.6981848789548963
aF1.4004104527311876
aF1.781143983292067
aF1.8929084256916626
aF4.792780956231497
aF6.7555761972720205
aa(lp264
F1.5420617247083923
aF1.7325620189015556
aF1.226819296123161
aF1.4253397224178377
aF1.0376506436838153
aF4.385100176652896
aF3.1083121826395947
aa(lp265
F1.619993160271133
aF1.4623016691008863
aF1.080006118898225
aF1.8338412538843696
aF1.9449133117173576
aF4.409886136237073
aF7.145661534543576
aa(lp266
F1.5618812512334892
aF1.4462769535957147
aF1.1713916866598018
aF1.980336545565422
aF1.9939975403497006
aF3.868210882029889
aF7.897759024622644
aa(lp267
F1.534556262381923
aF1.2457941241162587
aF1.3411049259674044
aF1.935241037576994
aF1.1459600199215116
aF2.9131694667961647
aF5.058382240780592
aa(lp268
F1.563780490355441
aF1.698842210497483
aF1.978539707313887
aF1.2421661084563707
aF1.1352377953097217
aF2.694651140169643
aF2.8317414928973212
aa(lp269
F1.7479047275125783
aF1.1179292692060285
aF1.0704939355737886
aF1.7253658489418793
aF1.1247459588848074
aF4.021449019326657
aF4.241940784722637
aa(lp270
F1.8175815206721408
aF1.4840523906648766
aF1.3743882868229813
aF1.1928753087134196
aF1.1459228108823685
aF4.006156146204229
aF2.7360905906386845
aa(lp271
F1.0025094916433077
aF1.511068537507204
aF1.4106351951224068
aF1.1142359497261172
aF1.856508729886481
aF2.3311153849339052
aF4.688146415806777
aa(lp272
F1.1377209014839567
aF1.756863022690038
aF1.7807732218103984
aF1.8289738932172823
aF1.2384521509283135
aF2.460154092903073
aF4.878909232209349
aa(lp273
F1.6613775901221604
aF1.3168560619115621
aF1.9239341480858199
aF1.5172112545031382
aF1.5069224657669091
aF2.3359871174514186
aF4.5727453086240075
aa(lp274
F1.7954589973304036
aF1.1966968264247595
aF1.978249483772776
aF1.0957256726830389
aF1.3406817419317516
aF2.35347277664426
aF2.998042282925854
aa(lp275
F1.8993488634962326
aF1.17175370907715
aF1.2823160270663894
aF1.3063606089069295
aF1.081769918949255
aF3.884013577678407
aF2.8768041980471613
aa(lp276
F1.517202558520327
aF1.7735408732608013
aF1.1706299013441317
aF1.4643929664738335
aF1.220307090705587
aF4.653350154863289
aF3.6335961558843684
aa(lp277
F1.0999292702220882
aF1.433587826616967
aF1.664540129549012
aF1.627670362317675
aF1.0064241729015093
aF1.9615138128272542
aF3.662200424167838
aa(lp278
F1.4843840397232826
aF1.2803269049667192
aF1.1006889617518139
aF1.1471706990191537
aF1.3673790344511945
aF3.4911161049994406
aF3.1857260365447746
aa(lp279
F1.9460411620290232
aF1.747557256877974
aF1.017925441346525
aF1.2557735440728357
aF1.401516907516133
aF6.7205635034808955
aF3.541216836046835
aa(lp280
F1.2053580947863725
aF1.5118816481118422
aF1.6009132034377345
aF1.7630592555613713
aF1.8186774907201246
aF2.3353385096307155
aF6.4159657538726655
aa(lp281
F1.2804680237360877
aF1.664627602625612
aF1.7434134131137684
aF1.0226551166831612
aF1.5253906552201866
aF2.5298551577369772
aF3.3726401387113203
aa(lp282
F1.7650847646191576
aF1.828210583907227
aF1.7324809613560934
aF1.4306899035159326
aF1.9855871168635737
aF3.7275319668426192
aF5.989429798677028
aa(lp283
F1.9918384328153385
aF1.022105378921308
aF1.416622709615703
aF1.9285798942399968
aF1.0017040787513798
aF3.5380766622185567
aF4.722831469853908
aa(lp284
F1.1116600876531249
aF1.495952658989566
aF1.9724736418679487
aF1.6611955965957343
aF1.5547891552482092
aF1.761069164467678
aF5.176940127426498
aa(lp285
F1.923782409752031
aF1.0645019794658648
aF1.038193986213451
aF1.5077756907626298
aF1.522124623143235
aF4.656262017071819
aF4.590250902033661
aa(lp286
F1.4593094719596942
aF1.02181180147689
aF1.2435910629745472
aF1.963495403184295
aF1.299352273564945
aF2.5520314411053993
aF5.543630529144249
aa(lp287
F1.6873252487341046
aF1.2517321125821779
aF1.3441357372807932
aF1.5908844938348126
aF1.5407901678613412
aF3.2838199701575044
aF4.904947814102227
aa(lp288
F1.4662569550487063
aF1.3700388276505957
aF1.6855429877220092
aF1.8852882656626355
aF1.2449342218662705
aF2.3890911574680453
aF5.104173061419004
aa(lp289
F1.0013864346017782
aF1.1703442977090024
aF1.054708607500337
aF1.0680182892250603
aF1.8022691410024547
aF2.24941803803728
aF4.38883712272895
aa(lp290
F1.00196968570926
aF1.6165378648134359
aF1.1213212976213909
aF1.5499668407975613
aF1.9337075180148997
aF3.2257818763710007
aF6.141621972799316
aa(lp291
F1.3914916981925058
aF1.546323721721937
aF1.8692434643325273
aF1.544985613250248
aF1.3303294728086579
aF2.31503615289829
aF4.1567570513736065
aa(lp292
F1.0368280456731285
aF1.4773743791665817
aF1.0368690012464412
aF1.9099721722259841
aF1.8273264059996657
aF3.1418119826092954
aF6.9871154927412995
aa(lp293
F1.4802780803144933
aF1.2534079703845449
aF1.921345894076757
aF1.0904018851643749
aF1.1891349684513903
aF1.9581350483958018
aF2.603018244363912
aa(lp294
F1.2750294599250214
aF1.487063698132912
aF1.4424709680636985
aF1.8666489371912371
aF1.6602688295562351
aF2.660059474980007
aF6.240870841113207
aa(lp295
F1.9726479646045367
aF1.1217653054193275
aF1.7727275294716778
aF1.2619113049882227
aF1.061126548025073
aF2.9049570828494393
aF2.7184096925806864
aa(lp296
F1.6614920422072572
aF1.8309856240324338
aF1.8031529570017824
aF1.9383277370270648
aF1.3191642443177178
aF3.3902083225907056
aF5.497308719614798
aa(lp297
F1.471593565709383
aF1.5462459508681419
aF1.8955013043459705
aF1.1052478964366017
aF1.380045760001572
aF2.403830666202341
aF3.1260992122758497
aa(lp298
F1.5338696646743744
aF1.7138219698035968
aF1.8682224060209376
aF1.9363703497891052
aF1.823257300150063
aF2.831537548924179
aF7.073797314092879
aa(lp299
F1.210889837956934
aF1.5332889810255153
aF1.6848356675277762
aF1.2366442788831915
aF1.3541254096408075
aF2.265638941869505
aF3.3629446975294135
aa(lp300
F1.1790019943081407
aF1.4033646397823438
aF1.4660412604976445
aF1.8407129485976066
aF1.9828933330783856
aF2.2915303308950756
aF7.3200901295016045
aa(lp301
F1.286322126438984
aF1.1716723440802976
aF1.1420613713560734
aF1.803930657041691
aF1.2289792229037153
aF2.650856399472099
aF4.764555745743888
aa(lp302
F1.234380456497977
aF1.1724980556439057
aF1.1026683753350595
aF1.527317559901459
aF1.6240003350215513
aF2.628575251368903
aF4.970076016933458
aa(lp303
F1.3161803743512337
aF1.7735583771143129
aF1.7492475868370194
aF1.898354404007045
aF1.2262506790039216
aF2.788536129227878
aF5.107440170970522
aa(lp304
F1.4515796884857732
aF1.4358750950116712
aF1.4915981603717674
aF1.7513249479073667
aF1.5445081565127194
aF2.79486861224084
aF5.45264451869706
aa(lp305
F1.5208791737083414
aF1.1986834351530367
aF1.6707478670906308
aF1.6100973537657055
aF1.4540532393853907
aF2.2444532251655627
aF4.706684311570475
aa(lp306
F1.6619973278090472
aF1.356697971113235
aF1.4977298027025538
aF1.8026195231917974
aF1.109601012930541
aF3.07322755690754
aF4.4806515532887055
aa(lp307
F1.1669043675286026
aF1.2354633964239612
aF1.322598084444814
aF1.4522805797457412
aF1.7028637391102537
aF2.1836078857418477
aF5.00886379628318
aa(lp308
F1.6929519496393723
aF1.5382759875644565
aF1.8088078285966926
aF1.9417306544666193
aF1.0293646153066112
aF2.892722618170298
aF4.829909445740693
aa(lp309
F1.941960172586524
aF1.9406340963703874
aF1.8814771375377903
aF1.6822341357069344
aF1.629503411327501
aF4.006038584009211
aF5.48519305486562
aa(lp310
F1.8654026044979184
aF1.2440539291728188
aF1.9084194863777508
aF1.3769153929874003
aF1.1688544683882656
aF2.6343249434641476
aF3.262116767716862
aa(lp311
F1.0710453118828236
aF1.5512232213141424
aF1.6367313261009933
aF1.0740684808610892
aF1.1200388986719965
aF2.1710536639604454
aF2.4081102361176265
aa(lp312
F1.3260908124459436
aF1.2769962460717865
aF1.1845748994707292
aF1.3879302437581496
aF1.521965991011304
aF2.8611413738796054
aF4.242730839333577
aa(lp313
F1.0343510256379846
aF1.8197575498034255
aF1.4764295141013442
aF1.9771895589032826
aF1.4088487357094048
aF2.9675643452384763
aF5.894133311946145
aa(lp314
F1.080314393739928
aF1.6933772375098224
aF1.0942199590977337
aF1.2867447084802195
aF1.584051363014632
aF3.687198011965437
aF4.164930665470359
aa(lp315
F1.0562396929242794
aF1.996316975493679
aF1.141034265188613
aF1.1290568646521728
aF1.1174982653026673
aF4.470438716150056
aF2.5235717765726653
aa(lp316
F1.6203537119674563
aF1.0677060999513532
aF1.8325226867937339
aF1.3948571984899458
aF1.579116717283195
aF2.054840845844266
aF4.439236210982474
aa(lp317
F1.1024811880672496
aF1.3465569301622293
aF1.60527767310613
aF1.0574628024343269
aF1.256772535981605
aF1.8867018379130385
aF2.6977047857298952
aa(lp318
F1.0945182693718611
aF1.3019099970846528
aF1.1374251731248854
aF1.5026801014048545
aF1.2735105732574197
aF2.5434111630832525
aF3.8798766673565455
aa(lp319
F1.0974105839374864
aF1.8310860282980272
aF1.8246865155611205
aF1.0052187835094997
aF1.043606389629414
aF2.4975172414012445
aF2.099579099195659
aa(lp320
F1.1815106483103477
aF1.0307538651805124
aF1.7575933901492689
aF1.1283578137370414
aF1.1551252511221843
aF1.3987427105916208
aF2.607505701601525
aa(lp321
F1.1654325996956998
aF1.3225858121728336
aF1.0191092086818274
aF1.5239273033442329
aF1.7425367940781316
aF3.0491986025852134
aF5.358788904594118
aa(lp322
F1.0709838138634082
aF1.2380744075554295
aF1.5522686952875908
aF1.0148865349104315
aF1.1929150244052225
aF1.726398642410709
aF2.453040934194215
aa(lp323
F1.381830405743448
aF1.3274319793984377
aF1.2770045181067395
aF1.722753667238083
aF1.0902077181602086
aF2.875111934302388
aF4.156433066718352
aa(lp324
F1.3565075401468922
aF1.5889680829457984
aF1.3734392522376098
aF1.6066597516758998
aF1.4924809831942465
aF3.1781036314379847
aF4.808855042851729
aa(lp325
F1.1155646602204776
aF1.7692002609082644
aF1.3548878525807928
aF1.6238843879743627
aF1.0754975112463763
aF3.228720418444997
aF3.79369540220402
aa(lp326
F1.9799291873960694
aF1.7501066532709217
aF1.1978913929347885
aF1.9574808523200509
aF1.829753345748548
aF5.82940400616615
aF7.1797285934776385
aa(lp327
F1.2947572261818912
aF1.7637515906697177
aF1.2151389016675018
aF1.7068836161636374
aF1.1238406135352301
aF3.939645041213658
aF4.176469403759098
aa(lp328
F1.7061244788593601
aF1.6016907598512091
aF1.8452028070591386
aF1.728445468164094
aF1.186110336441784
aF2.967843971733321
aF4.394381466631036
aa(lp329
F1.4351523238081776
aF1.1685314207304907
aF1.897434017303679
aF1.0866578428470377
aF1.3866420568672213
aF1.8051367491733175
aF3.1036014612939358
aa(lp330
F1.2148162325157033
aF1.3224484183032341
aF1.4506811413608265
aF1.9837353124301813
aF1.1619534767244175
aF2.222851187567971
aF5.285341671854431
aa(lp331
F1.5827727251859023
aF1.1906809519413235
aF1.8394196882331144
aF1.1320942997577874
aF1.9007662246805255
aF2.132678395258726
aF4.894549744430333
aa(lp332
F1.3931193655388512
aF1.9043127907044934
aF1.861727013753259
aF1.1182737842669952
aF1.7382123710622666
aF2.990335709990372
aF4.271918503492733
aa(lp333
F1.777528879298417
aF1.8288077988026505
aF1.3436752473781968
aF1.3193966326713031
aF1.370414534143547
aF4.840564633747842
aF3.618843469696248
aa(lp334
F1.1165648643937491
aF1.0826265221335678
aF1.5978132502413063
aF1.2559465330379405
aF1.2816288002319975
aF1.5138172639764769
aF3.219974075434132
aa(lp335
F1.1232346075954727
aF1.2556256505510706
aF1.7299478421475722
aF1.8032432463962778
aF1.6593414520430287
aF1.6406574168724788
aF6.005100260142054
aa(lp336
F1.558935014999288
aF1.2920134520853808
aF1.1273985012040317
aF1.9676465430766017
aF1.6690830222520892
aF3.6363159406209724
aF6.657471053651468
aa(lp337
F1.2229734289149383
aF1.0121979381065835
aF1.218426597742572
aF1.3594056911714065
aF1.5731776669387245
aF2.0684123921855226
aF4.322871804943978
aa(lp338
F1.0773761663498025
aF1.785732128547994
aF1.508137422490836
aF1.3873427130189868
aF1.0212171911723669
aF2.884073144716078
aF2.9676043549128615
aa(lp339
F1.3819200420153424
aF1.524529512201653
aF1.7175080782266652
aF1.0304752557427725
aF1.4790734175897167
aF2.46513730547865
aF3.249537427318657
aa(lp340
F1.205076013721467
aF1.26370822361544
aF1.0917832566122112
aF1.5339979616905912
aF1.209745727510066
aF2.792831502785302
aF3.8166344716997473
aa(lp341
F1.9061419621855125
aF1.587649458447038
aF1.5715754528289192
aF1.653987176959793
aF1.8197514174827782
aF3.915820886508546
aF6.047168802978006
aa(lp342
F1.5862106507154747
aF1.814582004889066
aF1.4940778747362142
aF1.5330091772251713
aF1.7899217347385141
aF3.8878643336686816
aF5.553936953945929
aa(lp343
F1.3721719022973264
aF1.6158159107529915
aF1.3885301708476177
aF1.7819068943732819
aF1.3706481000698956
aF3.23631195147429
aF5.053868394440249
aa(lp344
F1.7689836180124963
aF1.6530693820329028
aF1.4255352486295845
aF1.4963916700574218
aF1.6290221889718923
aF4.112098545614012
aF4.892901322380015
aa(lp345
F1.3470710783195834
aF1.8957684693892773
aF1.9588194956580698
aF1.1283340413710952
aF1.9966220573651463
aF2.761121477279681
aF5.2596373488738575
aa(lp346
F1.4715604814223653
aF1.354071928819792
aF1.2318461556455942
aF1.0601094826751218
aF1.4290127733618108
aF3.2463477850494664
aF3.165909621688928
aa(lp347
F1.9936027936203349
aF1.0670076351012057
aF1.4443212035539632
aF1.7007621797385877
aF1.5971138969291194
aF3.540041771535232
aF5.44336479179327
aa(lp348
F1.967640065904441
aF1.005574922053389
aF1.188684646347311
aF1.8071003135578079
aF1.7429247274127118
aF4.107723918046178
aF6.303398148687403
aa(lp349
F1.8192460212627346
aF1.23114488639027
aF1.9253397017640101
aF1.0693181604517343
aF1.6891676131198698
aF2.5062454239863015
aF3.9967285534849593
aa(lp350
F1.6824742378902697
aF1.9151237166120187
aF1.5100556910303657
aF1.3778529161064474
aF1.6651204587025787
aF4.303429634876691
aF4.671104800412927
aa(lp351
F1.7583342306531544
aF1.2403514203918988
aF1.0961069759559505
aF1.944346439088481
aF1.6551234908921995
aF4.224232683782223
aF6.519916845299237
aa(lp352
F1.1998787494770267
aF1.8923993637072356
aF1.4876487766272475
aF1.8266209936659066
aF1.077831206330183
aF3.375046882093569
aF4.498264363840201
aa(lp353
F1.9597190655575836
aF1.089906102834656
aF1.9660959236717508
aF1.711493534143061
aF1.1008782871400844
aF2.557552797075852
aF4.141143120509992
aa(lp354
F1.161308132884445
aF1.1561709845585944
aF1.4792459839225822
aF1.1324110280061421
aF1.231568762166456
aF1.8153626605886306
aF2.7991163522941442
aa(lp355
F1.5883342232728666
aF1.3158406709764727
aF1.1142500198128478
aF1.7792136240479994
aF1.4358340270805456
aF3.8180320399995935
aF5.227220473320353
aa(lp356
F1.0267371465453794
aF1.622211719570681
aF1.262569880773321
aF1.8937831039450739
aF1.0784073159652585
aF2.919252302257595
aF4.749376783915231
aa(lp357
F1.5806192695646453
aF1.4119189446869522
aF1.7350975188907418
aF1.0529315582998988
aF1.8270956681741182
aF2.5888299261454026
aF4.446943447124481
aa(lp358
F1.3959048561963274
aF1.840524182271861
aF1.325588594083484
aF1.9941941836206647
aF1.2878712383133109
aF4.025441722187851
aF5.63542276846115
aa(lp359
F1.9622115353117797
aF1.5301656501743572
aF1.2881721391424557
aF1.941758776544541
aF1.577283549197595
aF4.806563376231663
aF6.258250540857114
aa(lp360
F1.6709964597931837
aF1.4418053306947252
aF1.5448997905124708
aF1.9616230733607187
aF1.2042196362771764
aF3.152975882432653
aF5.298110014336687
aa(lp361
F1.4534915763155434
aF1.6234663694313995
aF1.6726898603305305
aF1.4657754429921532
aF1.1978989712919543
aF2.838709630341594
aF3.583459594701165
aa(lp362
F1.1897379838378968
aF1.0047695192242467
aF1.4860490637646482
aF1.036760921462181
aF1.5911908422904828
aF1.631869576907086
aF3.6067615048602066
aa(lp363
F1.3996621361459147
aF1.776012095347591
aF1.873034988715538
aF1.518821885630393
aF1.9954459858521956
aF2.7299399578691212
aF6.2886246027235035
aa(lp364
F1.540856195435314
aF1.8364102504660487
aF1.4732883418740275
aF1.0054329748347088
aF1.2877606579678587
aF3.9005537882139363
aF2.6692229790947843
aa(lp365
F1.940657953353665
aF1.315154369544851
aF1.5847267245004208
aF1.2586494887163453
aF1.8166775635914627
aF3.4679697279543737
aF4.88451590550253
aa(lp366
F1.3529479686778123
aF1.9858142185705605
aF1.2649241165226417
aF1.3416407532214514
aF1.0733996343918841
aF4.564642448670614
aF2.952186685817254
aa(lp367
F1.0231178687167186
aF1.0686234557273173
aF1.6386286933427634
aF1.0865657036877294
aF1.6117654352589557
aF1.335706052451141
aF3.7784128467259013
aa(lp368
F1.168725925127124
aF1.185956577524955
aF1.1627753598781023
aF1.659526093499047
aF1.7234103160968317
aF2.38430688119294
aF5.724169972633189
aa(lp369
F1.0143216941394337
aF1.7193186735370665
aF1.5376946079096543
aF1.1208455367008783
aF1.1165216860229261
aF2.5914802457376362
aF2.502915392501757
aa(lp370
F1.3623028236089278
aF1.331697361695709
aF1.7682934907815548
aF1.6195198881534094
aF1.9445055778053297
aF2.0524233478663594
aF6.403946610240471
aa(lp371
F1.8340360029028768
aF1.4440808664611102
aF1.1989429245822296
aF1.2092790887674898
aF1.4909098268680911
aF4.544884912450482
aF3.685168026382172
aa(lp372
F1.6637628925746462
aF1.5236496540805131
aF1.0259216740344492
aF1.227571873993146
aF1.2827929265182973
aF4.961017356298798
aF3.1524903981444226
aa(lp373
F1.7441470590143493
aF1.0930555542633011
aF1.1874497044763206
aF1.615513762139875
aF1.4997502200970376
aF3.567999042151216
aF4.859135438344445
aa(lp374
F1.8147523171842637
aF1.6498942796487983
aF1.1113346503563815
aF1.5772769341349608
aF1.2405432804278396
aF5.412840412034706
aF4.026750157568847
aa(lp375
F1.5759983222954914
aF1.538695069876991
aF1.0475222836970337
aF1.8034411640884687
aF1.226533558167437
aF4.63126494342442
aF4.7567846016396444
aa(lp376
F1.1514699656099165
aF1.1886269209211466
aF1.4755602775394183
aF1.0050415015664433
aF1.0052952514860465
aF1.856052294527172
aF2.0207269625313247
aa(lp377
F1.724337713416946
aF1.5330498322310155
aF1.1950078783075302
aF1.382476145575401
aF1.0828545708285504
aF4.454851247972715
aF3.0838143146493016
aa(lp378
F1.4591205011892345
aF1.4825990264660973
aF1.8757881107909462
aF1.1242752287413698
aF1.8422343602496216
aF2.306834383572439
aF4.6578222280457915
aa(lp379
F1.5773784079045883
aF1.692688754381113
aF1.5312804908299422
aF1.881336286814177
aF1.3216626942406187
aF3.495974704170913
aF5.286218501431126
aa(lp380
F1.8054228681974474
aF1.641629191307557
aF1.0236876492616938
aF1.6020580736249355
aF1.6945859529645588
aF5.816713857061689
aF5.438211623251641
aa(lp381
F1.6891845788257345
aF1.7608239300264594
aF1.4866906564129712
aF1.7552201023122143
aF1.785540288741659
aF4.004764157367952
aF6.268951730280547
aa(lp382
F1.6140060330066173
aF1.7113127265778696
aF1.9058163530017027
aF1.1742351702235685
aF1.1102893924981099
aF2.903536174413441
aF2.611570770083795
aa(lp383
F1.630991870268017
aF1.2086155114608559
aF1.5321084236318918
aF1.526009643622947
aF1.4056871341112522
aF2.689682970122645
aF4.304661751436139
aa(lp384
F1.3267705844909492
aF1.0349114972351692
aF1.4438093843399002
aF1.8867386820038647
aF1.060683331596299
aF1.961035869201303
aF4.684831984095904
aa(lp385
F1.0288325062393135
aF1.6182322289623123
aF1.418522696444453
aF1.9777427083260952
aF1.8405730235729614
aF2.5922545208221788
aF7.299175275441551
aa(lp386
F1.8221016131355645
aF1.106224522933599
aF1.3362871338064997
aF1.7942258731449963
aF1.219697722596556
aF3.400307365668953
aF4.706909018370149
aa(lp387
F1.7599524969096856
aF1.4856976253145016
aF1.862256078780874
aF1.8526287713895138
aF1.8763046984422882
aF2.8485503608700946
aF6.952752685976826
aa(lp388
F1.8076453639313588
aF1.5886079038455008
aF1.0369949939761114
aF1.422401689053967
aF1.749977850540406
aF5.584652643015883
aF5.085649042405597
aa(lp389
F1.3656924238771926
aF1.090405884964845
aF1.7462825215476818
aF1.0573975056083453
aF1.6864175704023752
aF1.7489156267193027
aF3.962093706628601
aa(lp390
F1.1545151676446643
aF1.4474201065613859
aF1.7734241770021122
aF1.4394185964571231
aF1.6864579022207642
aF1.9329443466788139
aF4.916066151789455
aa(lp391
F1.7928283144691637
aF1.809078715156251
aF1.5637508506888342
aF1.1803290103850763
aF1.3768924707357064
aF4.148358518837067
aF3.2890094487252917
aa(lp392
F1.1743994724117464
aF1.396780097048573
aF1.3333435477829587
aF1.3728452819031243
aF1.2463956742303088
aF2.497637436240176
aF3.438206344783695
aa(lp393
F1.1235992697170216
aF1.9893007777434897
aF1.4065132220803571
aF1.344408799313748
aF1.563189445377914
aF3.711158076081889
aF4.250996261813143
aa(lp394
F1.3109356627395845
aF1.7944866096498295
aF1.205524035745288
aF1.381622328326442
aF1.1824694238014462
aF4.0967532439133425
aF3.307114196355503
aa(lp395
F1.8957946687981018
aF1.3443928592547745
aF1.0696349995056869
aF1.0018653327483757
aF1.000765966689798
aF5.0497876273258715
aF2.0052666650475794
aa(lp396
F1.6599557126102882
aF1.983020587948329
aF1.339563248560924
aF1.1929869742406634
aF1.7327950173050355
aF4.992540387502503
aF4.425796492705052
aa(lp397
F1.2613818679590947
aF1.6679804418236364
aF1.0243844395280828
aF1.210952388282097
aF1.4724503871097503
aF4.269142328183772
aF3.634515829185768
aa(lp398
F1.9310917092463478
aF1.2841115612251928
aF1.644803161909349
aF1.7825238331737654
aF1.4015012631237003
aF3.2697272328617926
aF5.141597006369821
aa(lp399
F1.082404050108926
aF1.6892063052133972
aF1.8638144333714124
aF1.3200328417476328
aF1.5934546486415289
aF2.1595585897380034
aF4.281584420569629
aa(lp400
F1.4754920287319395
aF1.342185446467798
aF1.5711082745970433
aF1.1517208566987058
aF1.8695471435151019
aF2.532313376416956
aF4.821667453580278
aa(lp401
F1.6122835452430646
aF1.1503502117431204
aF1.5128603230856301
aF1.6724035089823515
aF1.4053409858298342
aF2.5929451516833475
aF4.771916783309653
aa(lp402
F1.0692447714412399
aF1.7380581575890743
aF1.475834813383725
aF1.5610865086713874
aF1.2020460550722099
aF2.8215424264650824
aF3.881905806070484
aa(lp403
F1.113503767007093
aF1.9857855439284886
aF1.0436383886468978
aF1.8782150334129786
aF1.0284610018047444
aF4.966504607342529
aF4.5854237439717345
aa(lp404
F1.2801861772335008
aF1.5625285544567005
aF1.097040567177504
aF1.1352862362194065
aF1.4855047707153437
aF3.7194359570224123
aF3.495599261967272
aa(lp405
F1.5038000290644609
aF1.9105070965362594
aF1.2001341200478595
aF1.0081497747698696
aF1.0233154071620136
aF4.925659386380867
aF2.0635403909036967
aa(lp406
F1.392903998052383
aF1.315522259792693
aF1.3357334060422428
aF1.913002696507496
aF1.6215145700545572
aF2.7481384737369496
aF6.288888817744166
aa(lp407
F1.8559272978228716
aF1.0421401328521072
aF1.2894742148400171
aF1.4435659514838448
aF1.1435365564975677
aF3.5134647433544903
aF3.391558512329773
aa(lp408
F1.1820158225777861
aF1.7519662545466463
aF1.8987509398584113
aF1.095046173444088
aF1.9819644308521172
aF2.352360737858285
aF5.1273091271374955
aa(lp409
F1.8679778925188923
aF1.07223414174377
aF1.9415002812902507
aF1.111622440373643
aF1.8338558516927619
aF2.3894034455546884
aF4.5987317347300385
aa(lp410
F1.9222106520752638
aF1.8462477397115173
aF1.515362852349734
aF1.4180173738724822
aF1.4898084957548705
aF4.687672326351879
aF4.2303026266276005
aa(lp411
F1.0777041197692117
aF1.4319612054285065
aF1.6895522241013534
aF1.6051548631924102
aF1.5542645195652263
aF1.9010711937763178
aF4.992260331609568
aa(lp412
F1.243889370339304
aF1.8170729438081727
aF1.7923540408460434
aF1.5928847907794124
aF1.8915293451374322
aF2.705388967948504
aF6.115165220212416
aa(lp413
F1.093022784154047
aF1.7375243985741373
aF1.7911375490793657
aF1.2769772692377428
aF1.6354808962591236
aF2.3525216388244967
aF4.305468708178429
aa(lp414
F1.162956666489807
aF1.1141344485729876
aF1.9450190525510993
aF1.9195763392806904
aF1.1956398479402692
aF1.3335415785403864
aF5.114327968308887
aa(lp415
F1.6617039404306566
aF1.0099903565491564
aF1.0779515265600894
aF1.3836934809328203
aF1.6900689167334035
aF3.507894754815096
aF4.770940592484405
aa(lp416
F1.1191223958694687
aF1.2686829557575474
aF1.9339211511767016
aF1.6662688825700815
aF1.801778251165663
aF1.4798904171583922
aF6.022856855394943
aa(lp417
F1.0493862329633066
aF1.187643121056933
aF1.9787403153714518
aF1.9362578948002303
aF1.9644923119870643
aF1.269346780583116
aF7.608324679032501
aa(lp418
F1.4690837991501007
aF1.7226733606543863
aF1.858203543087117
aF1.358970423806614
aF1.0027752672593746
aF2.758476451894947
aF2.852358849408238
aa(lp419
F1.7833050950431018
aF1.161648004752423
aF1.0336562769953401
aF1.7070498887275747
aF1.4200883627315541
aF4.3821173921748375
aF4.9306702805704115
aa(lp420
F1.6290655130164116
aF1.6165688174708968
aF1.2198055956844271
aF1.5403416166807422
aF1.953972871525794
aF4.318023466979839
aF6.190662278737399
aa(lp421
F1.3148137232581445
aF1.1956917841007741
aF1.2468775677610382
aF1.0878152743180567
aF1.992131324453067
aF2.5330586186625026
aF5.1519292849067995
aa(lp422
F1.7857161248452145
aF1.2019218507279725
aF1.4958973134771631
aF1.2783927382130205
aF1.013478213495172
aF3.0974039274255967
aF2.66142608234515
aa(lp423
F1.8765750941834616
aF1.4075127670235377
aF1.2598573566015288
aF1.4523231452669667
aF1.6007665471932762
aF4.367658167498647
aF4.671696056891218
aa(lp424
F1.7566253284652014
aF1.692051957397831
aF1.1614077687176745
aF1.7289865861142244
aF1.8252412980185193
aF5.122035973383771
aF6.32090041095525
aa(lp425
F1.7511296870664137
aF1.9943337976539255
aF1.110439276085715
aF1.6421792875914383
aF1.8229317319753524
aF6.3432757009635266
aF6.019832912036982
aa(lp426
F1.909076150008182
aF1.5833459835828536
aF1.275384289017744
aF1.8742311857080138
aF1.8454257452169966
aF4.823296243515536
aF6.918338718590174
aa(lp427
F1.7453156213548693
aF1.6166602508417283
aF1.0591790055194887
aF1.762029049515729
aF1.4053459912039843
aF5.343494305781757
aF5.079743726330412
aa(lp428
F1.7503151673997444
aF1.6345513801832898
aF1.5431215031276737
aF1.2422925358565742
aF1.7524256513751761
aF3.7167270289889576
aF4.614286408242668
aa(lp429
F1.270278142927074
aF1.517380218880608
aF1.2121063704688395
aF1.159388905804809
aF1.1575678367456705
aF3.23078022231143
aF2.684145931571324
aa(lp430
F1.33288846000506
aF1.088369758117992
aF1.910787260634208
aF1.4439946686167073
aF1.9726869858180875
aF1.549696524676246
aF5.976614547009526
aa(lp431
F1.8336259367959786
aF1.311827020895718
aF1.5778955993543333
aF1.3459022297906897
aF1.0073424579351475
aF3.221426189998269
aF2.8261916397143754
aa(lp432
F1.822332238566342
aF1.9064905688894491
aF1.0237563119824253
aF1.708394784431718
aF1.3165694409779571
aF6.794196036275122
aF4.651967832390507
aa(lp433
F1.660395731498109
aF1.0924167895738173
aF1.2792129129532595
aF1.1186737576519294
aF1.3659264276317384
aF3.0880617192958586
aF3.1171859817618905
aa(lp434
F1.2469300110490158
aF1.5943937271607367
aF1.240246277111677
aF1.3925937829287833
aF1.321391269933606
aF3.303316353591683
aF3.6853923325086466
aa(lp435
F1.9023238288258464
aF1.3753676799920673
aF1.269902897864595
aF1.68748703685272
aF1.8110772179367478
aF4.339286266809473
aF6.127613188875483
aa(lp436
F1.7159078919998192
aF1.83156157977551
aF1.8961087570863682
aF1.3189697939801017
aF1.9027058702714323
aF3.3220445245009254
aF5.359970946197281
aa(lp437
F1.7774574860679113
aF1.0763327041132649
aF1.5058590250616533
aF1.4662730014410288
aF1.881248741670528
aF2.8673648282221174
aF5.689053342791828
aa(lp438
F1.661223198471066
aF1.6744979633382933
aF1.8433266076250108
aF1.1433583417652078
aF1.3417601842788314
aF3.018242085449427
aF3.1075886898000493
aa(lp439
F1.5194230302443488
aF1.8208754945193841
aF1.0320615745395667
aF1.2621213580505315
aF1.9251861469939828
aF5.449513914794539
aF5.299292023024855
aa(lp440
F1.4315594426989633
aF1.7326432606420343
aF1.9777722662152075
aF1.2079295685605378
aF1.6355269395998935
aF2.554093407475847
aF4.134042212759841
aa(lp441
F1.1965354435978128
aF1.1343599027086464
aF1.3805661131745903
aF1.1342241794564016
aF1.8631908716752368
aF1.9690976264859246
aF4.757944713557476
aa(lp442
F1.629507671457148
aF1.1034544355703817
aF1.5443364894788498
aF1.229590262711305
aF1.9456652878560183
aF2.5078128821683108
aF5.297505626522298
aa(lp443
F1.685192842184027
aF1.4325515590335525
aF1.7918492808584368
aF1.7784886365768844
aF1.623737693657489
aF2.730184361429132
aF5.799545928237247
aa(lp444
F1.373293020185355
aF1.7473550708676435
aF1.9131121098878079
aF1.7358946169686285
aF1.3803571643471075
aF2.5817532790936824
aF4.918716022385049
aa(lp445
F1.7130996710232496
aF1.2141282221203946
aF1.4723055780763796
aF1.4158903637591849
aF1.581949036707587
aF2.9944991639367933
aF4.50730827692618
aa(lp446
F1.9923375151180638
aF1.5200682515292347
aF1.9907521706758797
aF1.7127282344738308
aF1.2467824756551182
aF3.1545947084522528
aF4.487904546764551
aa(lp447
F1.3487719286714244
aF1.807456688590042
aF1.3150324029681024
aF1.2995566281544244
aF1.5005893095479013
aF3.8676502458960953
aF3.940615705709544
aa(lp448
F1.134151671455888
aF1.116688440691243
aF1.5342113915343258
aF1.056961840633162
aF1.6587438754525305
aF1.651202110359865
aF3.868599576905922
aa(lp449
F1.8792192165035821
aF1.7604650095374828
aF1.520605563021179
aF1.289472064881101
aF1.0482444392313086
aF4.360566654976649
aF2.7615546104880915
aa(lp450
F1.048667881641894
aF1.930695616029293
aF1.9267648638436023
aF1.5873385647378824
aF1.6371408814834747
aF2.5053860895679407
aF5.199873984928609
aa(lp451
F1.3790411149001263
aF1.7574703533877503
aF1.6763621105148494
aF1.7798569024529236
aF1.782842695742079
aF2.9769561172491326
aF6.3464186709702
aa(lp452
F1.5129969970094055
aF1.4088549231813519
aF1.145175751083464
aF1.5918461417550396
aF1.6552829601641186
aF3.732206260469715
aF5.273935817230093
aa(lp453
F1.9114260109350014
aF1.6247976790875422
aF1.696766372312905
aF1.1345353825993318
aF1.7086142354618847
aF3.7091240113795427
aF4.206533139992813
aa(lp454
F1.9756869245914148
aF1.1734724079791927
aF1.3097361450753056
aF1.0955334646518207
aF1.733784964265771
aF4.0316336509032995
aF4.206203874486083
aa(lp455
F1.7732674097148018
aF1.353346608702912
aF1.8871233289740177
aF1.112539472495886
aF1.592676066350688
aF2.636830499228504
aF3.7743611301877253
aa(lp456
F1.817799563893486
aF1.4130539225774013
aF1.7128128517192973
aF1.0076459473771653
aF1.1646439515943454
aF3.094977152513506
aF2.371745889250917
aa(lp457
F1.1827564095176022
aF1.4264395246541506
aF1.766711504266493
aF1.625631810077266
aF1.063693382737638
aF1.9435218672989374
aF3.7741223944149276
aa(lp458
F1.485140568254502
aF1.529623603405271
aF1.0451441016040575
aF1.078053346029769
aF1.431298627070964
aF4.349056621564141
aF3.2108147767412074
aa(lp459
F1.000212261570565
aF1.052554451541263
aF1.637391647704937
aF1.1925719182375434
aF1.452809083209896
aF1.2875938658967405
aF3.5328820124259526
aa(lp460
F1.9217895467782826
aF1.9156618565829242
aF1.1974333049426842
aF1.6939967668441749
aF1.8469212138391873
aF6.14901504783638
aF6.280743016207735
aa(lp461
F1.7362216619749131
aF1.1396004001176498
aF1.1699732571060126
aF1.5760224219802046
aF1.6683832077322645
aF3.6865412993524664
aF5.267349202427351
aa(lp462
F1.299436513660321
aF1.0125104333258925
aF1.8574770688400881
aF1.6140281805691425
aF1.6037381922211629
aF1.4609669622043135
aF5.1770631568601395
aa(lp463
F1.207320061738565
aF1.6612787600712937
aF1.437320133708522
aF1.1142244853604395
aF1.6955312486216578
aF2.9342585212792263
aF4.116322418829254
aa(lp464
F1.554969586887501
aF1.6561634414986666
aF1.378581375046966
aF1.7760780995964653
aF1.3839588235690243
aF3.743564112003162
aF5.06979544120075
aa(lp465
F1.8809379085129256
aF1.3110611868660231
aF1.7098139781348793
aF1.611336491836163
aF1.031436181815995
aF3.0744916807393414
aF3.6602658870820313
aa(lp466
F1.3331390013258373
aF1.0993889536612518
aF1.0886598876536286
aF1.0661693169572728
aF1.3965881003860399
aF2.7427442694925865
aF3.0871753345610253
aa(lp467
F1.731407361715254
aF1.4344198545936355
aF1.0876593016778773
aF1.877695396644544
aF1.942974826664793
aF4.64790009486941
aF7.300891179633194
aa(lp468
F1.2315005554777556
aF1.025246594490946
aF1.7021538190607282
aF1.2815983728932667
aF1.609940706668481
aF1.5085147822152807
aF4.234403468390877
aa(lp469
F1.9753406830978362
aF1.676193203261056
aF1.3001312236403781
aF1.428029234615783
aF1.9975848440068595
aF5.1622438927106655
aF6.029612703923249
aa(lp470
F1.7723122626962748
aF1.778775164504347
aF1.06631628566549
aF1.4609466622703118
aF1.025294845082926
aF5.913003418517623
aF3.1855946693523856
aa(lp471
F1.773758146049036
aF1.9029494628744574
aF1.792524291118769
aF1.9925994900313535
aF1.2326171061592484
aF3.775365640766707
aF5.48979765806961
aa(lp472
F1.7604685252046595
aF1.5452128882222071
aF1.1836230306989808
aF1.705515570011285
aF1.2304816826513405
aF4.6357093059637515
aF4.422868530891392
aa(lp473
F1.0255325049323303
aF1.1092605689399142
aF1.8505247911563787
aF1.8303791917859322
aF1.6687631504699385
aF1.2332587703683602
aF6.135058438089278
aa(lp474
F1.2126119563387334
aF1.647366831599561
aF1.4043302254451833
aF1.928644580826112
aF1.7620050950716188
aF2.9795308529969082
aF6.824331874208273
aa(lp475
F1.7438279956538898
aF1.4357102361255811
aF1.758439336800727
aF1.229686088684471
aF1.6849094491938619
aF2.901550172225381
aF4.351047728686876
aa(lp476
F1.1820892331528778
aF1.798179042295084
aF1.7970625160042812
aF1.027690742954627
aF1.7609126097330476
aF2.5768623974093248
aF4.156961482271486
aa(lp477
F1.919419362298322
aF1.6523640639474264
aF1.6079060801794332
aF1.7878688612745555
aF1.392432199592375
aF3.9893360484554745
aF5.135342495576835
aa(lp478
F1.903974452692199
aF1.7823958462735667
aF1.1532376026005366
aF1.231528886298598
aF1.404507530644153
aF5.898223968746141
aF3.4893048014240016
aa(lp479
F1.0152377715113396
aF1.4004434287491798
aF1.5075949453000532
aF1.4637338086448723
aF1.4122195320922928
aF1.9845844795099055
aF4.1368806693929985
aa(lp480
F1.4833266459326777
aF1.430513253588362
aF1.1042923168867258
aF1.6832885168001406
aF1.7998460528352553
aF3.845563391401782
aF6.072906044697866
aa(lp481
F1.475485317341397
aF1.3193641802107625
aF1.4208219340995267
aF1.3601200606798485
aF1.0431930957963607
aF2.757403069087773
aF2.9381784145809497
aa(lp482
F1.711795661976772
aF1.9555056842360756
aF1.793885100146712
aF1.9991931946828312
aF1.00614793751552
aF3.7651502144087736
aF5.009107101832879
aa(lp483
F1.054901996541881
aF1.705249003525104
aF1.3687586809192274
aF1.1849222035482123
aF1.9339587356021823
aF2.9374735242820167
aF5.144237019473543
aa(lp484
F1.0033993980478686
aF1.3017357971771113
aF1.341612614934475
aF1.3566590461255421
aF1.0115277420356121
aF2.013492127000527
aF2.8637121403419297
aa(lp485
F1.6551313597637825
aF1.09961215246472
aF1.0129968551479474
aF1.4587128433841525
aF1.8087626984008227
aF3.8979456686910554
aF5.399465658580104
aa(lp486
F1.515257795326215
aF1.955279745912235
aF1.4212500627645748
aF1.9016569546256064
aF1.905961650508144
aF4.305452806220976
aF7.248988986283664
aa(lp487
F1.8312349842186335
aF1.3105010159644799
aF1.4289944186858938
aF1.2010071528027484
aF1.8330231242895039
aF3.5485334399929305
aF4.802391955263419
aa(lp488
F1.5328415361191272
aF1.3827640883511068
aF1.489022888652146
aF1.1845023231296283
aF1.8800355738224797
aF2.86203773720572
aF4.937579512337507
aa(lp489
F1.6903387569512316
aF1.8421563114160573
aF1.8906704616429406
aF1.9108049369654045
aF1.6943092865378138
aF3.306120826317712
aF6.52185946557964
aa(lp490
F1.4869395120991364
aF1.3053086992576544
aF1.9527750702367992
aF1.7029317875074654
aF1.779987200832656
aF2.0047469740202106
aF6.068331108031446
aa(lp491
F1.2604573066745859
aF1.5833380930584804
aF1.9106757014206648
aF1.4724891244424978
aF1.5939280025432865
aF2.143593565268082
aF4.708830698893065
aa(lp492
F1.6318476976628262
aF1.621170178672559
aF1.6090812809844293
aF1.3333696961449124
aF1.0271049269633952
aF3.288286128931659
aF2.8328192775900574
aa(lp493
F1.0895783240575287
aF1.649760999491635
aF1.143159864239382
aF1.9400686604839112
aF1.4434581156226534
aF3.419375016547217
aF5.847437738948739
aa(lp494
F1.6859925380136365
aF1.512685160563647
aF1.0095248625630069
aF1.055108564275076
aF1.3872539510620037
aF5.082378278629968
aF3.037727607143752
aa(lp495
F1.5713967438211776
aF1.866152624920661
aF1.2858145530648302
aF1.3813464512938483
aF1.2169876525630188
aF4.628827175585705
aF3.389176964992955
aa(lp496
F1.7293736479051434
aF1.175259021127274
aF1.7447080267478787
aF1.969750323169261
aF1.1675308206251764
aF2.5058444815887566
aF5.243044552735106
aa(lp497
F1.2613292381594707
aF1.4763766025839498
aF1.2753201414521103
aF1.6775643043699309
aF1.840066758746806
aF2.9566217901960963
aF6.200067671941147
aa(lp498
F1.9311992510486742
aF1.071993445140661
aF1.674035890462059
aF1.1874308527027986
aF1.3749221251278145
aF2.914334466466492
aF3.300402880116481
aa(lp499
F1.331954299851022
aF1.153836970731802
aF1.4039151156280754
aF1.2513851365765603
aF1.223342058469361
aF2.21198701926496
aF3.06253055206479
aa(lp500
F1.1775113726159172
aF1.0467294462199817
aF1.6930557843530554
aF1.77470378630316
aF1.8720508270825316
aF1.4660920149020908
aF6.654147828299163
aa(lp501
F1.3972047256040492
aF1.0180652509012051
aF1.9060151233514935
aF1.7054725422145451
aF1.1883200709951653
aF1.5680032460013578
aF4.320741183377698
aa(lp502
F1.1034701759805325
aF1.7160509011145262
aF1.9713795364254292
aF1.7642858442364884
aF1.211401552931693
aF2.1114539577914186
aF4.580198262618576
aa(lp503
F1.2044104868473517
aF1.750537548491213
aF1.9211491504418796
aF1.9656773676564088
aF1.9994116557905648
aF2.3501487786448116
aF7.861534483027796
aa(lp504
F1.6364860948668776
aF1.0443043293117364
aF1.8779429995888948
aF1.1873576090196296
aF1.6232173953129987
aF2.0068012030913
aF4.044652804143528
aa(lp505
F1.3986502248147479
aF1.9730972996828586
aF1.1666494613520288
aF1.652348208906153
aF1.2370787353290638
aF5.013790002192556
aF4.260618400878728
aa(lp506
F1.9017326401023023
aF1.9573670977875752
aF1.5273553707060699
aF1.6603268157289923
aF1.9744357972603956
aF4.876319639016822
aF6.655081852532069
aa(lp507
F1.1722243618521215
aF1.4003288590999108
aF1.5189826613109425
aF1.7391339380015038
aF1.040876329264058
aF2.195568753411186
aF4.108010387130838
aa(lp508
F1.2719996727882013
aF1.4456918201846873
aF1.2793337997529108
aF1.548492976494598
aF1.384350198246973
aF2.8983897769592004
aF4.314255969639533
aa(lp509
F1.5648763618837798
aF1.6351140483637732
aF1.4934341147764527
aF1.5529772158269861
aF1.4315433523326326
aF3.429971184169676
aF4.46105460248549
aa(lp510
F1.0864024313592742
aF1.4175252783805243
aF1.9630138532578965
aF1.3846844067220405
aF1.0702375269623312
aF1.624872973982052
aF3.062759270337616
aa(lp511
F1.74229393943607
aF1.4667310395280113
aF1.5962556469727955
aF1.6304150288697126
aF1.6447281156233347
aF3.2494094060354346
aF5.3633837406861105
aa(lp512
F1.0587812864397592
aF1.534619678100379
aF1.197232788311764
aF1.1213809350394461
aF1.388469835550921
aF2.9034247999752902
aF3.185343685704744
aa(lp513
F1.9112818727278573
aF1.8110427125925372
aF1.5103875174699397
aF1.645811920357431
aF1.9369656332237375
aF4.590129369889089
aF6.460532741480449
aa(lp514
F1.91511364034822
aF1.7508426475428047
aF1.2282906115405432
aF1.6583127867704217
aF1.4297405741920997
aF5.481691522055784
aF4.794159408257437
aa(lp515
F1.8410207586638876
aF1.4548135560174313
aF1.4715052718428425
aF1.083317794453424
aF1.9481742125116948
aF3.7416379145609113
aF4.968960206074993
aa(lp516
F1.2052459270608624
aF1.6534426422642985
aF1.5669714260538565
aF1.6838255583477233
aF1.980313976914693
aF2.671708141160995
aF6.756911958108709
aa(lp517
F1.09664534338815
aF1.8280732743179766
aF1.3265002023334191
aF1.4691883531482097
aF1.5791726045820869
aF3.425919496624618
aF4.652300532088921
aa(lp518
F1.3026466872874276
aF1.101639842906794
aF1.6702765472893195
aF1.8330383135932755
aF1.230774730562439
aF1.7425250567662243
aF4.874835896491923
aa(lp519
F1.3049595162039704
aF1.3758831586087386
aF1.6080818884048194
aF1.3579000104352423
aF1.1418404839641245
aF2.2361882383002176
aF3.1476921291594575
aa(lp520
F1.9504017446427906
aF1.3472317532986549
aF1.5848736499689093
aF1.911093112136623
aF1.711843272447017
aF3.5454563603300744
aF6.582684272678155
aa(lp521
F1.6332427952798825
aF1.0214406387479833
aF1.8720755242121503
aF1.0309860873387264
aF1.9784302128812172
aF1.9821972772071819
aF4.977118419527235
aa(lp522
F1.1572487876579578
aF1.751308492257432
aF1.9792433563240421
aF1.7228213853855254
aF1.2715210576758311
aF2.226257916950871
aF4.584879326054765
aa(lp523
F1.3581242193958936
aF1.0863826584399803
aF1.8560409136318716
aF1.927404398311578
aF1.226409521556202
aF1.6296670260086468
aF5.218968029194529
aa(lp524
F1.0155646277521133
aF1.6264972312982238
aF1.877136902483055
aF1.3801357066478752
aF1.7043746977406629
aF1.9587621721667514
aF4.809667679063006
aa(lp525
F1.9602618707551678
aF1.8529185038878802
aF1.9507684380577621
aF1.9196860722161788
aF1.6108861533114622
aF3.7297781951151348
aF6.28014881479138
aa(lp526
F1.0007856412225755
aF1.8146609701421972
aF1.9327322512818523
aF1.136758638649236
aF1.2704803360415018
aF2.222018250787921
aF2.906340486811792
aa(lp527
F1.0332535252468176
aF1.3993642059947082
aF1.2285133815236426
aF1.6336774007663255
aF1.0004406584454335
aF2.4630037197490178
aF3.66978336084535
aa(lp528
F1.468508679988985
aF1.612579022872894
aF1.254701592706137
aF1.6875068993659357
aF1.4995544857700784
aF3.7912830236813186
aF5.096343191200798
aa(lp529
F1.5584004693213038
aF1.6293097719253082
aF1.155408683756198
aF1.5786360013707657
aF1.8593368267489472
aF4.399536222236646
aF5.949225060128724
aa(lp530
F1.474887203119968
aF1.8979205356280509
aF1.9952442672777733
aF1.2140191679540253
aF1.6440046343066812
aF2.8955826192489913
aF4.176593777781628
aa(lp531
F1.3868266027125826
aF1.76280958779634
aF1.5605355918690318
aF1.9039294080052613
aF1.2022497800344358
aF3.223755802193991
aF5.070351724260114
aa(lp532
F1.5043917567958047
aF1.9712976975025565
aF1.588202133056095
aF1.7009414404974827
aF1.2594063033758847
aF3.8718051324244502
aF4.479306020984563
aa(lp533
F1.5481180193586364
aF1.0331774536448113
aF1.3620908212531893
aF1.4536009739001554
aF1.9463058409024188
aF2.543240875374023
aF5.901062217654352
aa(lp534
F1.6912445676495995
aF1.22247695876866
aF1.5864053647716756
aF1.1228798899422245
aF1.0273890742895055
aF2.745047513723779
aF2.3163875572061094
aa(lp535
F1.8102438153086113
aF1.1186255008051393
aF1.5545140978165701
aF1.7151042937906635
aF1.6129264898867868
aF2.9130039336889686
aF5.543114600357681
aa(lp536
F1.112712830107573
aF1.0383547508413744
aF1.7952344038461894
aF1.2114479998939658
aF1.274666780371637
aF1.290255147694525
aF3.092381657430085
aa(lp537
F1.6417276737680835
aF1.13461744391934
aF1.4393979815056954
aF1.5862135978855525
aF1.0308591871521928
aF2.766869587170017
aF3.578744241853109
aa(lp538
F1.5721887516123925
aF1.6636942133623682
aF1.5479751940032065
aF1.1220199814462333
aF1.0019639925074633
aF3.3848448777281304
aF2.262860681046101
aa(lp539
F1.2121818079146025
aF1.5988554394589074
aF1.9603421991412509
aF1.9695830679426176
aF1.8086837707049515
aF2.0535819988418154
aF7.150594443937735
aa(lp540
F1.708614659998113
aF1.0022182916807614
aF1.1268302376099613
aF1.8830340118424531
aF1.5877229919724747
aF3.482162112424737
aF6.06668138899351
aa(lp541
F1.0335714478065614
aF1.7271850913224425
aF1.530347860624861
aF1.3135292423120537
aF1.0993849453237754
aF2.6473969622522358
aF2.934006328413439
aa(lp542
F1.8002389675364263
aF1.374377596152003
aF1.7984566474221655
aF1.9356364822784768
aF1.1127416703768402
aF2.8523201403792444
aF4.984882616520437
aa(lp543
F1.0006552858771083
aF1.0550789180204565
aF1.4864129455397408
aF1.5752368391872882
aF1.543845941110718
aF1.4225538944275031
aF4.864831389416796
aa(lp544
F1.988204565267283
aF1.8319791936578134
aF1.9677959773072788
aF1.0717622347965472
aF1.3150967744473805
aF3.714361266937103
aF2.8781538140979936
aa(lp545
F1.125604376269688
aF1.4269919589531477
aF1.4987277045795069
aF1.3789444495130447
aF1.5378139609138397
aF2.2040636552596515
aF4.266359573224347
aa(lp546
F1.2148717523523027
aF1.3169938819260976
aF1.7858409295141415
aF1.660246473095702
aF1.6387946791384456
aF1.7976888123892134
aF5.442066351799198
aa(lp547
F1.804524044164601
aF1.9428213538587538
aF1.6938500269219423
aF1.019010990580326
aF1.3916094742865517
aF4.1508172076805305
aF2.9749603278475902
aa(lp548
F1.1452611392532623
aF1.9426048424812776
aF1.8706303020693205
aF1.4428955217271395
aF1.0533731559814712
aF2.718515061736096
aF3.1915424923625992
aa(lp549
F1.2425391559083132
aF1.6952487789131692
aF1.3087910413303017
aF1.348881727303409
aF1.4327179252107887
aF3.375460128365147
aF3.8721625674733353
aa(lp550
F1.133354839006864
aF1.912063748625319
aF1.2051857151375234
aF1.1100124216445475
aF1.1626134970721436
aF4.099352413369441
aF2.583797719779512
aa(lp551
F1.6984731575345213
aF1.5394543284527031
aF1.075580210024508
aF1.6814808278837399
aF1.806602821103247
aF4.88548473399052
aF6.091191527758798
aa(lp552
F1.7339704785034904
aF1.1417640755880067
aF1.9174836089587317
aF1.738470238693227
aF1.9911219860833385
aF2.2478830090055415
aF6.986845534286544
aa(lp553
F1.621953975882319
aF1.4102400362792666
aF1.210586361246847
aF1.711860920971726
aF1.3979935820586924
aF3.8159290470177853
aF4.884853868227459
aa(lp554
F1.8725384085701848
aF1.1303235505971383
aF1.9081338884405472
aF1.401782807775087
aF1.259836842924292
aF2.5071780599813716
aF3.5521839109632536
aa(lp555
F1.6451214124047588
aF1.9097249134904486
aF1.6703848122263418
aF1.1596811508247091
aF1.2229963238429986
aF3.803598823609165
aF2.8405803797116107
aa(lp556
F1.4408305259213492
aF1.9094181806367234
aF1.015586903305247
aF1.6346208615799829
aF1.8413660134506626
aF5.634052954356648
aF6.062614156603671
aa(lp557
F1.9911423261726822
aF1.2969143786136281
aF1.7186439183324147
aF1.9432051077809906
aF1.417075971316606
aF3.2855174991745897
aF5.784150399389034
aa(lp558
F1.3395284617227616
aF1.882764882609961
aF1.0910828105026464
aF1.4300522160962403
aF1.485603172154861
aF4.89343251635958
aF4.252066125878354
aa(lp559
F1.6000269416009456
aF1.6045490323503868
aF1.4008356139990814
aF1.445441531623714
aF1.65918329903202
aF3.6654292336322665
aF4.842190441129485
aa(lp560
F1.3742409142400884
aF1.205186848264228
aF1.8937308393095815
aF1.410351469078392
aF1.3765000387215358
aF1.764249364402054
aF3.883843622931968
aa(lp561
F1.3125624171280466
aF1.2625790647874005
aF1.8388121282035677
aF1.0700602033592583
aF1.904512425415743
aF1.8038416991174222
aF4.772196417376214
aa(lp562
F1.2068234960250992
aF1.7818446224917475
aF1.265484106649178
aF1.4807788706290155
aF1.1766307144650554
aF3.659779830443127
aF3.5771659019238893
aa(lp563
F1.631393940564688
aF1.222198990145805
aF1.6067741366413542
aF1.2538404281356774
aF1.3414757883033448
aF2.586061392244134
aF3.3716731098315393
aa(lp564
F1.3276992981512936
aF1.5762357411224066
aF1.5916302721024713
aF1.2292946360834942
aF1.2260133943586837
aF2.6685246016919772
aF3.0142741454505515
aa(lp565
F1.0387552954556982
aF1.3732683094081537
aF1.7650477935520903
aF1.9359556817616999
aF1.8379899055423454
aF1.6797723122812898
aF7.126131294620968
aa(lp566
F1.6883182348199195
aF1.5349379177945535
aF1.5982761685959357
aF1.5535741050834853
aF1.1045090409346368
aF3.2575427049523786
aF3.633532721492303
aa(lp567
F1.7671000426510775
aF1.8289597897514438
aF1.804516988060891
aF1.4570937705853706
aF1.284509713029153
aF3.584192621104236
aF3.7730874591449295
aa(lp568
F1.7537142585331198
aF1.64183528761298
aF1.8344230483378103
aF1.1623098500987172
aF1.6403390652853151
aF3.146022842148028
aF4.041676436737604
aa(lp569
F1.4536984813098353
aF1.7832435923525756
aF1.3114141233098588
aF1.6273900907575571
aF1.253897219001988
aF4.036251318439073
aF4.220656743316809
aa(lp570
F1.565620387177797
aF1.2249514438791693
aF1.2773229822836876
aF1.9943843182644574
aF1.3209530660964541
aF3.0937149737518523
aF5.7224858117688076
aa(lp571
F1.8181793370024222
aF1.629567536902806
aF1.9808741648309982
aF1.337614339015352
aF1.5258484683397133
aF3.0094119882363355
aF4.117425668274127
aa(lp572
F1.7662823157363092
aF1.2199108250850845
aF1.6716159229359144
aF1.243523828353594
aF1.5236776787091992
aF2.7565755846292257
aF3.8679451802798326
aa(lp573
F1.3959393994119216
aF1.5105942256955665
aF1.9619879173414085
aF1.1208065392919062
aF1.2490451990622076
aF2.156252688481333
aF2.8163212078198487
aa(lp574
F1.7057033505210315
aF1.2767287228879245
aF1.8223714417576578
aF1.3683832070913544
aF1.3875051236048597
aF2.4909631745806124
aF3.7976430694793573
aa(lp575
F1.8033936343506929
aF1.131544523551692
aF1.670043586365705
aF1.5024595193638732
aF1.3574227350634516
aF2.7140738398691564
aF4.099981088994262
aa(lp576
F1.736057461171304
aF1.5400443315234615
aF1.5886030017470412
aF1.7662067018089802
aF1.8959719263351817
aF3.39016862339007
aF6.714195658966096
aa(lp577
F1.9622404535989215
aF1.7008820755852438
aF1.3927476635955314
aF1.3636517331231783
aF1.141562837012517
aF4.8417869288529065
aF3.162711760097914
aa(lp578
F1.980955226547413
aF1.3206383371309889
aF1.1956011822276196
aF1.0003041738987313
aF1.995638276471167
aF4.740936452174306
aF4.9831805708360335
aa(lp579
F1.0949682782100085
aF1.7018387269698807
aF1.7453798596490444
aF1.051113415603179
aF1.4289397750589177
aF2.346314792313524
aF3.1467082932064114
aa(lp580
F1.745149532085899
aF1.6116756580793654
aF1.3112432213606167
aF1.4881727105759865
aF1.888547128540047
aF4.3035839760755135
aF5.781268273219936
aa(lp581
F1.4100427357732859
aF1.7728808811200283
aF1.5595934424928044
aF1.2319574184288846
aF1.2561619374427588
aF3.29016972984074
aF3.0956618939019074
aa(lp582
F1.3027114363441572
aF1.3085916497346954
aF1.957237253991012
aF1.9438970878153865
aF1.1134285469298872
aF1.7419805315809127
aF5.018459017135541
aa(lp583
F1.1330927097932728
aF1.1566386555781887
aF1.7109805692747813
aF1.4243977134191095
aF1.996210041699028
aF1.5322862898879235
aF6.013763376573623
aa(lp584
F1.437937933128618
aF1.4660858468407962
aF1.7249673375743102
aF1.0851055927919555
aF1.572815242563413
aF2.4447264119025256
aF3.6512019347481885
aa(lp585
F1.0721709187167527
aF1.73030866776924
aF1.6879984490485125
aF1.6770607208125958
aF1.5244969310949688
aF2.4546933482284286
aF5.136623554210441
aa(lp586
F1.8202632894392257
aF1.2783148691941024
aF1.5302285493093595
aF1.048038967030866
aF1.0289409451477773
aF3.233142754992896
aF2.1571051450167262
aa(lp587
F1.7150493961717563
aF1.840835791810318
aF1.6486144926835742
aF1.890936028999624
aF1.5756839015525324
aF3.839630715252959
aF6.058418823380677
aa(lp588
F1.4508920298989199
aF1.4409650780764047
aF1.6147929573918143
aF1.7565054118254921
aF1.3282902326814736
aF2.5894762666130164
aF4.849666204009245
aa(lp589
F1.498694421678414
aF1.7918874950867094
aF1.73052888065213
aF1.2459511047656706
aF1.9435124823867322
aF3.1533398983562355
aF5.329634924659834
aa(lp590
F1.2210555017454505
aF1.9033347069715751
aF1.8685059588217157
aF1.3667252202087723
aF1.3807438792978002
aF2.7367638411654256
aF3.7743914877730553
aa(lp591
F1.436818762792187
aF1.2329296319035827
aF1.0190044164127192
aF1.7087679935509774
aF1.3099554921239878
aF3.517711578676561
aF4.635871447130032
aa(lp592
F1.8703499383147097
aF1.5499860627174007
aF1.9096831597603106
aF1.512260685350863
aF1.8094192733777006
aF3.0898663247952802
aF5.560930487328548
aa(lp593
F1.0235476424349563
aF1.0752486399350354
aF1.1218960492460766
aF1.3934943616712623
aF1.27744549552779
aF1.9643615070195488
aF3.57369353005384
aa(lp594
F1.2985926966935075
aF1.1147428597130888
aF1.7467388473416854
aF1.2728370235216149
aF1.6975803727769896
aF1.6768360305517847
aF4.501893210485027
aa(lp595
F1.8123847944829552
aF1.364120153242944
aF1.312591283246436
aF1.977349407724927
aF1.601704717679561
aF3.920155879010595
aF6.475368682867082
aa(lp596
F1.8768858401546207
aF1.4489024685042038
aF1.3983724882945263
aF1.9367737423666862
aF1.9602217904617416
aF4.0204014790559714
aF7.593561996922094
aa(lp597
F1.7212162891453184
aF1.2572292506268523
aF1.4788316547161777
aF1.0874356131115301
aF1.1923053550073672
aF3.0721623304194727
aF2.6041082722424935
aa(lp598
F1.4230560553213456
aF1.0409653755675214
aF1.3623285198230772
aF1.2981544455188634
aF1.6443436115757089
aF2.281900000244361
aF4.389070877350234
aa(lp599
F1.7505165921873067
aF1.1257709599731105
aF1.5781823106999624
aF1.2622420405118946
aF1.239366788332143
aF2.7447200266239453
aF3.1292850048563627
aa(lp600
F1.5358481628228695
aF1.4731531847919417
aF1.87171364632092
aF1.462052453271371
aF1.6113018253717009
aF2.4197130228821817
aF4.73389094856301
aa(lp601
F1.533247239632442
aF1.944894550452041
aF1.1457717770962212
aF1.2696801954848307
aF1.894133759108408
aF5.3531270649403195
aF5.199830496200547
aa(lp602
F1.7871766427276041
aF1.9729190047093232
aF1.528251707050852
aF1.4701229645370206
aF1.3230314532123233
aF4.636938875160399
aF3.91167375704823
aa(lp603
F1.5369541730403833
aF1.4992892339643755
aF1.5499154524658145
aF1.5585985777643443
aF1.5219767063420382
aF2.9744179463295044
aF4.7456426212567955
aa(lp604
F1.6319266287554273
aF1.6681751983642528
aF1.9618160870128656
aF1.615974096045719
aF1.2696984165345495
aF2.77599569609552
aF4.223506348041121
aa(lp605
F1.533129156328998
aF1.6524473591103765
aF1.2116917485444647
aF1.8974385402674858
aF1.0220757889359409
aF4.193366250715592
aF4.644911932421433
aa(lp606
F1.220671056853039
aF1.9375739498267373
aF1.5473023018321959
aF1.4081677492828542
aF1.8844476858988517
aF3.389273468976351
aF5.5340794910098765
aa(lp607
F1.2957250378885588
aF1.7777271417534006
aF1.2634701078577517
aF1.2543533081598297
aF1.847911012204342
aF3.8301002407908555
aF4.988177330717584
aa(lp608
F1.78212386266516
aF1.9657565718370034
aF1.2297028916754065
aF1.6970367470355328
aF1.470486113951657
aF5.725093767982524
aF5.042263132113588
aa(lp609
F1.2567942685004863
aF1.39964175038121
aF1.4329623696939642
aF1.1193160422456256
aF1.1613608250427068
aF2.469380171861434
aF2.601627368372288
aa(lp610
F1.8498668263749092
aF1.1391106116357785
aF1.2402700269869862
aF1.8192104143357488
aF1.676530961551349
aF3.8052844607790695
aF6.120282596667938
aa(lp611
F1.1574011240294757
aF1.7019841974877137
aF1.9523670629909944
aF1.6599403808148847
aF1.3737624815221299
aF2.1698417529706764
aF4.642625423497705
aa(lp612
F1.913729699808652
aF1.0685127254561835
aF1.7676351440855411
aF1.885631314662609
aF1.7398629758948507
aF2.717801139259896
aF6.582728629725924
aa(lp613
F1.7324717362986872
aF1.0243418858920843
aF1.100067730600606
aF1.8782771485856973
aF1.6447831979781586
aF3.682259286030646
aF6.233236815250477
aa(lp614
F1.264759460786245
aF1.5135102317910998
aF1.8444161902650547
aF1.5985739509907668
aF1.1989701744724188
aF2.1092472165003042
aF3.992968156060653
aa(lp615
F1.0240148154360982
aF1.249010692183246
aF1.6894716776665493
aF1.683044998737487
aF1.5297722649631362
aF1.5440531415262724
aF5.172843650425712
aa(lp616
F1.5507803653427559
aF1.5871633623055135
aF1.88717441716516
aF1.4341169665810876
aF1.1421923607893014
aF2.6091956500630213
aF3.361294862881178
aa(lp617
F1.8050755456519219
aF1.6769444817805248
aF1.1954838914342596
aF1.4799906966723484
aF1.6963607160482645
aF5.077810386220961
aF5.068012141188484
aa(lp618
F1.0622193308989312
aF1.6405514079205301
aF1.3713618970001438
aF1.1906691606926167
aF1.1219863053737993
aF2.785347060700058
aF2.676546319670809
aa(lp619
F1.0681478133274869
aF1.0544058042463564
aF1.2900548792695292
aF1.7897200714838126
aF1.020042977812374
aF1.7462135815650381
aF4.243585610856359
aa(lp620
F1.8019818205277398
aF1.5031098183452243
aF1.4158312245188966
aF1.7562486826774326
aF1.4841840711051177
aF3.889218935250843
aF5.287211792328378
aa(lp621
F1.6578438031916343
aF1.4438539065436329
aF1.0855855113186235
aF1.2558554691400674
aF1.7877733841361012
aF4.4521229592973635
aF4.773306632394466
aa(lp622
F1.089923303672422
aF1.0384058394999023
aF1.3571278010079846
aF1.0395689395000511
aF1.2400438408535055
aF1.6698644694423812
aF2.618412307211975
aa(lp623
F1.0012727498932845
aF1.3098754324528932
aF1.7946902573375174
aF1.5847518410498171
aF1.4998295651410327
aF1.5146461942994178
aF4.760927122181924
aa(lp624
F1.6974628819046713
aF1.1118304339585663
aF1.9797978918017243
aF1.8157728255304206
aF1.8346198970348397
aF2.0797815607195203
aF6.662861120530854
aa(lp625
F1.2679953647802487
aF1.661303683981751
aF1.537715690831536
aF1.9418501846733913
aF1.7935212854545295
aF2.8404094473105306
aF6.987500741094552
aa(lp626
F1.026364320531588
aF1.2124223125342504
aF1.3967851402593334
aF1.9407584548950805
aF1.6175468652326783
aF1.8065710392098413
aF6.383001241470804
aa(lp627
F1.186502257171361
aF1.9815437936581244
aF1.2747876770810787
aF1.4206059530024566
aF1.786988112355043
aF4.184464211853607
aF5.211447787404258
aa(lp628
F1.4761096661414843
aF1.9679866266278712
aF1.6875685122657949
aF1.432690321844067
aF1.8016760173930784
aF3.586148393428481
aF5.29863802995504
aa(lp629
F1.0369410280098366
aF1.7163680932103702
aF1.1724387333552255
aF1.1829993082105896
aF1.8221215217416127
aF3.4297452076264405
aF4.719614203220704
aa(lp630
F1.6586987497659138
aF1.959462242109557
aF1.7090703133849
aF1.1216095629110954
aF1.176342942247415
aF3.8563503029168285
aF2.6417907293889233
aa(lp631
F1.7144119449333795
aF1.0400558021822095
aF1.6575042864481506
aF1.2430344406092817
aF1.7289380101196885
aF2.4258907934407405
aF4.534361263377458
aa(lp632
F1.7389547057089132
aF1.2843910157314702
aF1.0758498554850071
aF1.22310802260013
aF1.6162947169804425
aF4.344122672853788
aF4.1084018470876895
aa(lp633
F1.2160761875629018
aF1.219081684498896
aF1.484006723520483
aF1.8922996524474496
aF1.1505408561977972
aF1.9979703598676204
aF4.904542236433099
aa(lp634
F1.6928058890305828
aF1.4054214031504395
aF1.362611442893162
aF1.4439703816451672
aF1.3484333729953775
aF3.552590963196193
aF3.9033230244761805
aa(lp635
F1.1258185674726593
aF1.7927193708381934
aF1.9851102212629743
aF1.490867232043997
aF1.1682084478576504
aF2.2574616469374496
aF3.58739608122851
aa(lp636
F1.9279566654030957
aF1.8775390815887196
aF1.294170063921404
aF1.2733164745010002
aF1.9543949361044395
aF5.595995540664168
aF5.440994410506333
aa(lp637
F1.8563460284639315
aF1.23532884754386
aF1.9359997163687757
aF1.6354193062172366
aF1.0179801062791767
aF2.5682121215872944
aF3.7108798039282314
aa(lp638
F1.588102508756729
aF1.6738877424928937
aF1.8991950335348275
aF1.3024043105854832
aF1.0108928546788256
aF2.8032769982966266
aF2.718161351872353
aa(lp639
F1.1432848354702747
aF1.6443835299318084
aF1.9194890689940776
aF1.581550119955949
aF1.625997638765067
aF2.089669315298228
aF5.1451691032022495
aa(lp640
F1.0226263000031242
aF1.6247469744562562
aF1.1031286756338203
aF1.569270074795814
aF1.1638020455101772
aF3.341013031272382
aF3.817043768783332
aa(lp641
F1.2478935218103753
aF1.36117781580243
aF1.6974324425702791
aF1.9340638894317466
aF1.2975627581750817
aF2.008941977593779
aF5.424272239806781
aa(lp642
F1.3118323195752
aF1.262288109859963
aF1.6617892208435663
aF1.0052237885233848
aF1.4261124223350592
aF1.9944017360357396
aF3.0442715061516767
aa(lp643
F1.4713118536777037
aF1.6827113801834366
aF1.6716919914150135
aF1.6890166380719795
aF1.8588340259123117
aF2.9887540201363523
aF6.308041139573345
aa(lp644
F1.7255465672736658
aF1.3052418294998078
aF1.2718131057596223
aF1.1097907726562641
aF1.1280926591443743
aF3.680703688385089
aF2.504228606688413
aa(lp645
F1.5980324311611418
aF1.7643204068760152
aF1.625650110684453
aF1.8335218587157558
aF1.3969438519723
aF3.4857034191546523
aF5.313254531951688
aa(lp646
F1.6294310640579144
aF1.922763149807525
aF1.3539434862483306
aF1.8777742182620623
aF1.0987655049314338
aF4.691527960576645
aF4.7333216495969275
aa(lp647
F1.6153427769136797
aF1.0746447532348946
aF1.5779222134545638
aF1.4710737601798471
aF1.185629793410981
aF2.3855381466121144
aF3.56977601491344
aa(lp648
F1.8273811412508771
aF1.0899231838130383
aF1.2213992722776745
aF1.7397132633478716
aF1.649144190081784
aF3.706612968231142
aF5.746278798349004
aa(lp649
F1.5703903105864556
aF1.7109370976592753
aF1.278158201724842
aF1.249298896123412
aF1.4577827882181749
aF4.219690076277154
aF3.6858783894803318
aa(lp650
F1.3768222325252562
aF1.5397947128701572
aF1.746535823965095
aF1.5934875012184966
aF1.323120428944644
aF2.4428970532493297
aF4.289850086030227
aa(lp651
F1.933353322185623
aF1.0003721978061186
aF1.4567857437847973
aF1.1219741442568105
aF1.5944654933246123
aF3.2527773028849984
aF3.8011461897837013
aa(lp652
F1.0592315217379449
aF1.526639752385333
aF1.946329334329774
aF1.9231604675800247
aF1.3044164541303225
aF1.773903465003958
aF5.400048469868543
aa(lp653
F1.54545570375848
aF1.1956072225748149
aF1.2562145260595252
aF1.595344645890127
aF1.7016971950837303
aF3.039218130145847
aF5.44089788292613
aa(lp654
F1.1421259722068449
aF1.7789032047100326
aF1.2363707368265295
aF1.8697905509426924
aF1.7079921298023946
aF3.6145698171308913
aF6.413353819861497
aa(lp655
F1.5158081910385337
aF1.5370329396202902
aF1.1632686635707605
aF1.514891367065179
aF1.7247565680268502
aF4.006077766414302
aF5.269681072960365
aa(lp656
F1.3044125068625674
aF1.239428056742678
aF1.0040327445089936
aF1.3053460685779235
aF1.6119175886776909
aF3.224669627168138
aF4.302206671440342
aa(lp657
F1.8989768063882542
aF1.1557963635699258
aF1.130315444972004
aF1.5380270777997225
aF1.2249267673225015
aF4.372211462937588
aF3.865972877348307
aa(lp658
F1.4824485423821039
aF1.9404662825754522
aF1.9483468946831985
aF1.5000528264004815
aF1.4554918317435601
aF3.0605756556470984
aF4.368614954264297
aa(lp659
F1.3541423153506673
aF1.938465902911652
aF1.4179069739396906
aF1.7758627419872441
aF1.58228956797085
aF3.943383853623796
aF5.657328755287832
aa(lp660
F1.3244548490031063
aF1.5798955139831568
aF1.136424192637464
aF1.8228477626369246
aF1.8689860375807235
aF3.7400211203597955
aF6.8158827744221355
aa(lp661
F1.6766140720213083
aF1.5053744302926213
aF1.7647684624476279
aF1.618066177862107
aF1.7919664688605237
aF2.876970565780031
aF5.829281981461742
aa(lp662
F1.2066917703213542
aF1.897117935447771
aF1.3572589591318192
aF1.3798132507399572
aF1.9948025308566526
aF3.72453720459688
aF5.883121744029674
aa(lp663
F1.7547924474257544
aF1.986715007777406
aF1.544141208913753
aF1.713939959756345
aF1.4370039766635765
aF4.550317687987367
aF5.0025706145965145
aa(lp664
F1.2463151945201019
aF1.2296870145202212
aF1.810718279743393
aF1.38681787704063
aF1.2053613651591295
aF1.692936859402421
aF3.3761598446977605
aa(lp665
F1.0304605117523749
aF1.1061737928325077
aF1.274701924626215
aF1.9964112593379304
aF1.3008780678093967
aF1.79294412448667
aF5.677941663718771
aa(lp666
F1.6129148369686996
aF1.9969905253706204
aF1.215329234071619
aF1.7003788651910594
aF1.6142200246025598
aF5.421959124325218
aF5.496994573016323
aa(lp667
F1.2393542548389476
aF1.8776837704714422
aF1.7520088490077148
aF1.6289249477553853
aF1.5178628848762554
aF2.8890809048972823
aF4.957304222704753
aa(lp668
F1.0675780563478154
aF1.006453243986586
aF1.2684087572493308
aF1.0003595915695935
aF1.4615708556150133
aF1.697142996233155
aF3.1369086784284863
aa(lp669
F1.7129711875370717
aF1.931986221745928
aF1.2308137101327148
aF1.3671473189560004
aF1.4875142358378755
aF5.416612599829918
aF4.081790393548919
aa(lp670
F1.2126464120469993
aF1.8121043882631769
aF1.3811205317465611
aF1.4582506009735605
aF1.7495460510871972
aF3.4423017581245663
aF5.187406200114556
aa(lp671
F1.8836962143726876
aF1.0927847262129995
aF1.9123980072878446
aF1.9113948222721708
aF1.1315700519000262
aF2.4798655237108282
aF4.933880948965891
aa(lp672
F1.4443385286402308
aF1.9591321578399097
aF1.9253200736663048
aF1.0846509931715085
aF1.6770842686901475
aF3.0770533576350614
aF3.989079421275907
aa(lp673
F1.2477214114800463
aF1.4592453863948898
aF1.8501550461128717
aF1.1080781035063194
aF1.8561937802227741
aF1.9923767070901186
aF4.673292433207874
aa(lp674
F1.966072527793783
aF1.0810794040498521
aF1.5149830914987215
aF1.334838126726852
aF1.04277389416281
aF3.322924124140607
aF2.8691702189111226
aa(lp675
F1.0862698428150148
aF1.3056997366321048
aF1.4169131923340945
aF1.7220551373934871
aF1.920732094987137
aF2.0359990924343716
aF6.654685676936978
aa(lp676
F1.4834302694159125
aF1.2099972084769441
aF1.0073432582179214
aF1.5034932246820132
aF1.4834385436396087
aF3.6379442447696198
aF4.461081789420322
aa(lp677
F1.7384319945734261
aF1.336224123523898
aF1.469555809360697
aF1.4408281075835876
aF1.9205641606000627
aF3.271492431536319
aF5.764552330584326
aa(lp678
F1.877716644864491
aF1.7550935318890986
aF1.6993806205112039
aF1.3621077993983692
aF1.5525567224885193
aF3.8874005177797413
aF4.265770033726161
aa(lp679
F1.6651318544383118
aF1.2049116903232029
aF1.6296702460231944
aF1.0189647621749265
aF1.3683377810276096
aF2.592227651238939
aF2.910637469541767
aa(lp680
F1.702540401571668
aF1.9312510359670962
aF1.2192145905446787
aF1.9958571534556246
aF1.6182032023547006
aF5.436593717227909
aF6.602027381110997
aa(lp681
F1.5509400389524592
aF1.8776502203925611
aF1.1739084885743751
aF1.354613397959835
aF1.3053978909699469
aF5.052340461196282
aF3.539041111681075
aa(lp682
F1.2042895474396813
aF1.061316137140233
aF1.284772430510552
aF1.7013572302166267
aF1.0754462077994242
aF2.0055732796218155
aF4.051200970680554
aa(lp683
F1.172122650964384
aF1.0289331770949972
aF1.5949200695935322
aF1.2290424754935771
aF1.1550672893861424
aF1.525201819330373
aF2.8447258495772307
aa(lp684
F1.1350031111570478
aF1.7315813058519731
aF1.2727372061991025
aF1.9820492068344675
aF1.3635493522515238
aF3.3680211910467404
aF5.7877858943386915
aa(lp685
F1.379759265666928
aF1.1482450920825014
aF1.8288791978010728
aF1.756628999064837
aF1.6006828939754967
aF1.7618454114188964
aF5.6479311674213015
aa(lp686
F1.5662793116656624
aF1.5022827947932444
aF1.1927333098393627
aF1.8919618376658887
aF1.809437629165343
aF3.948983765966942
aF6.8535841290235835
aa(lp687
F1.1102031078113825
aF1.1901835609615679
aF1.857565461201811
aF1.6763529496510445
aF1.8908538885103794
aF1.4261073995547369
aF6.38548763949858
aa(lp688
F1.9716925377113008
aF1.1654406759676068
aF1.652229083763698
aF1.5897174976519945
aF1.0234711123278823
aF3.1749976344179403
aF3.574694840110592
aa(lp689
F1.5434188014995809
aF1.1631390542822584
aF1.0815291832965044
aF1.6545419052154364
aF1.2722774426753487
aF3.4534750556010274
aF4.356198807254451
aa(lp690
F1.7720389776255807
aF1.4082910696089328
aF1.0501627282887918
aF1.8522108481212711
aF1.620966275161303
aF4.878678072409806
aF6.058216691108427
aa(lp691
F1.289946798247228
aF1.477781126724775
aF1.647185717332265
aF1.1475367851124751
aF1.474039299635861
aF2.3359841943287405
aF3.4896325300572544
aa(lp692
F1.4918599786741336
aF1.492132743753249
aF1.827609169362725
aF1.9535297414620356
aF1.1609466006662963
aF2.4360275684667334
aF5.164075460375356
aa(lp693
F1.7642024977934911
aF1.1199225988919976
aF1.0291742338964616
aF1.4947251021540615
aF1.6129397687476175
aF4.24285503553434
aF4.835777828617087
aa(lp694
F1.5595156203149705
aF1.9021181964334009
aF1.4902290975950336
aF1.1158336365474566
aF1.7153413870815712
aF4.05987415825748
aF4.18748077868565
aa(lp695
F1.9773409924660337
aF1.1615477322988408
aF1.268352552669017
aF1.9967183654113345
aF1.248231861094796
aF4.146379115040516
aF5.54496700982309
aa(lp696
F1.4403429430805867
aF1.5643825370557134
aF1.8140126599109934
aF1.3463626952677723
aF1.903111487408487
aF2.4927502524424434
aF5.434525840714843
aa(lp697
F1.82996471948821
aF1.4643660066459043
aF1.1322931566992085
aF1.7879769386467486
aF1.0639891964129022
aF4.851339640703029
aF4.328934543215972
aa(lp698
F1.3759764320389611
aF1.5012593848410845
aF1.057492292502376
aF1.0714105576778894
aF1.853222935563009
aF3.9216275253285433
aF4.582355832000422
aa(lp699
F1.6642450854770383
aF1.7750882725044264
aF1.5907796425530676
aF1.9906234283047541
aF1.3886857641958186
aF3.721854316802218
aF5.891029784995897
aa(lp700
F1.4997600277193264
aF1.513029264480413
aF1.1824940389801233
aF1.7955239485734218
aF1.5857088958482017
aF3.8381061944576134
aF5.738378952272814
aa(lp701
F1.8622863021174767
aF1.9084126062168387
aF1.7632956466768142
aF1.54092523452245
aF1.3128026809250786
aF4.032306754696433
aF4.097901457432141
aa(lp702
F1.4076112770827636
aF1.3925710107896325
aF1.1551610719371033
aF1.732987694077885
aF1.3279164617282628
aF3.3940059293096567
aF4.7666084771542945
aa(lp703
F1.957985819412575
aF1.3755826928045893
aF1.88185290958541
aF1.1233163048075594
aF1.1871385017243294
aF3.0427118849717836
aF2.6711373429227954
aa(lp704
F1.6044994071764296
aF1.614006976452822
aF1.711018042013758
aF1.2859951418167688
aF1.2018183233930613
aF3.0271082715013518
aF3.09815078721964
aa(lp705
F1.3531712266440903
aF1.2564223349858374
aF1.2853205395888212
aF1.3455523368220772
aF1.9058033264055294
aF2.652777534823727
aF5.4425974100657335
aa(lp706
F1.960073370946326
aF1.4708832731450245
aF1.5206930030289902
aF1.26388280126314
aF1.431978101448477
aF3.949110840089943
aF3.647961018356747
aa(lp707
F1.6002339176935316
aF1.8212555772121783
aF1.5260600594458529
aF1.2988308212739146
aF1.1066492943568802
aF3.8515656264522042
aF2.9116341629916525
aa(lp708
F1.8208608225125045
aF1.0026106412624758
aF1.1499993141604743
aF1.3988389528827052
aF1.69583574601902
aF3.7571867910964123
aF4.832609293577869
aa(lp709
F1.2887685062610608
aF1.8114058830878212
aF1.785739569988639
aF1.09592050035261
aF1.1170983732940694
aF2.7675455139558665
aF2.448950518709371
aa(lp710
F1.4219176195677998
aF1.2148704030895265
aF1.5890114310466266
aF1.5205072366580519
aF1.3333161533039823
aF2.20121752732541
aF4.089674221390833
aa(lp711
F1.009776586165902
aF1.0750750942103973
aF1.8899820665703997
aF1.7084396290953594
aF1.0793510064565437
aF1.1510348434723232
aF4.083764561402243
aa(lp712
F1.7762903514342487
aF1.283850259140323
aF1.1764735874213512
aF1.2330622231190433
aF1.4835947143994592
aF4.082946656729937
aF3.7214957226772905
aa(lp713
F1.61939968040395
aF1.1783194987198136
aF1.1040032875935586
aF1.8246669694818536
aF1.3161882298512058
aF3.6330436793339946
aF5.061761005916942
aa(lp714
F1.7721061950778612
aF1.2393907305838274
aF1.1607090336915464
aF1.4423418569461302
aF1.5755386645007743
aF4.028959553125349
aF4.562672115635694
aa(lp715
F1.650115576121997
aF1.425996523540812
aF1.6277241623534395
aF1.8738000451180166
aF1.734209126045898
aF2.9220844721220844
aF6.518607901945158
aa(lp716
F1.6868364213477958
aF1.1048737778871698
aF1.2363410721862582
aF1.3257622716970756
aF1.6285836729443481
aF3.288868475636573
aF4.409930380836294
aa(lp717
F1.0712570082452735
aF1.475977728926564
aF1.645642691896282
aF1.7071328808039445
aF1.6293111593202592
aF2.0211567495062663
aF5.568957526607502
aa(lp718
F1.029808111627347
aF1.9572825472608544
aF1.2127269680702186
aF1.162131769014818
aF1.1618170546775488
aF4.03343856067543
aF2.7003691170931248
aa(lp719
F1.9808724916275997
aF1.08669758416544
aF1.9759367785518045
aF1.5802757890659995
aF1.5351883095702976
aF2.5834670030583187
aF4.854074715349475
aa(lp720
F1.0029277319490912
aF1.45847847097271
aF1.8609071591481738
aF1.9720774877052372
aF1.6041660428981221
aF1.6836001035309989
aF6.46243831070122
aa(lp721
F1.0809339679857541
aF1.3899106489911204
aF1.6742279164212812
aF1.181730173944695
aF1.2145960954977464
aF1.8517609370361452
aF2.87172987920973
aa(lp722
F1.4326960100571395
aF1.2050694038249055
aF1.8879021768726147
aF1.764362222566005
aF1.2289008921592188
aF1.8564574839753711
aF4.6231714551677765
aa(lp723
F1.9748122967024968
aF1.817243902449345
aF1.310310706838175
aF1.449288659668055
aF1.6187742252287056
aF5.496603950963672
aF4.720867611307224
aa(lp724
F1.9797838944624928
aF1.4833067469067596
aF1.7189994224751248
aF1.2180601920898158
aF1.1256273750418866
aF3.5600612159488647
aF2.7507076189975668
aa(lp725
F1.1227491375721672
aF1.0578984273336705
aF1.1365172941818487
aF1.7133067365064312
aF1.0426728287556084
aF2.0938658132670103
aF4.02258660118354
aa(lp726
F1.1443307038515402
aF1.9855448427335949
aF1.8867582880975569
aF1.5439220533465787
aF1.0463526009150392
aF2.783547376160662
aF3.4785490722515835
aa(lp727
F1.8600714041981505
aF1.276087626103678
aF1.1475917791312544
aF1.4070129861704561
aF1.87895143038165
aF4.433863461502399
aF5.510144020985552
aa(lp728
F1.8440322847254365
aF1.2315278716227525
aF1.8104638389473644
aF1.0038616086836072
aF1.217448580453547
aF2.7159426550890284
aF2.4899191754371968
aa(lp729
F1.6605768377846046
aF1.1551461241395335
aF1.5046208299871595
aF1.0134677409923545
aF1.8937770873702533
aF2.719540977201694
aF4.613508518680706
aa(lp730
F1.9240889172600963
aF1.5539110413661912
aF1.9337270215470803
aF1.321938725249441
aF1.6881454745784188
aF3.1631960549991036
aF4.597357136653712
aa(lp731
F1.012006704944665
aF1.8622420346968
aF1.8061094355937772
aF1.2044793433346501
aF1.3967971444715035
aF2.487170975421991
aF3.4018127513236163
aa(lp732
F1.6899018661881704
aF1.026007070295297
aF1.7239088326928678
aF1.9517438637274043
aF1.7313578557152254
aF2.2672073786737954
aF6.8069041341444
aa(lp733
F1.7831621245132745
aF1.164725869921525
aF1.8428571397961844
aF1.1044390377703877
aF1.2353430072593228
aF2.46153291885927
aF2.745857933735687
aa(lp734
F1.330805235751783
aF1.848085111302663
aF1.338229759879331
aF1.9245326402704643
aF1.3542819088669689
aF3.8756133734394025
aF5.537905372150766
aa(lp735
F1.5884567092688475
aF1.0474167388652724
aF1.7625739670781164
aF1.8514199183076547
aF1.5357453825916456
aF2.053971413226898
aF5.786269594057883
aa(lp736
F1.3326617581162128
aF1.1172848652930973
aF1.848967391935183
aF1.916949203003563
aF1.6510159957404515
aF1.635676672801177
aF6.400548065086831
aa(lp737
F1.4526839387281645
aF1.6569782279121121
aF1.5535432497481398
aF1.508138172250296
aF1.7631327791630176
aF3.125672538824246
aF5.38311794355757
aa(lp738
F1.7359131749693157
aF1.580998219075614
aF1.1026353587049869
aF1.301641959191397
aF1.3792532053700253
aF4.999794244061892
aF3.596611194451108
aa(lp739
F1.5592437171888505
aF1.7227715129782784
aF1.752235509281582
aF1.7009896290946735
aF1.0124701961435034
aF3.0813110605982637
aF3.918461616366499
aa(lp740
F1.187255984114321
aF1.6879272925930127
aF1.9227831332902732
aF1.646692618713214
aF1.984026626828688
aF2.21484952887442
aF6.647958236489804
aa(lp741
F1.0791730621457059
aF1.7651922454279365
aF1.6776052326894844
aF1.1157672226672768
aF1.9810512547556147
aF2.551564621980504
aF5.169500569147444
aa(lp742
F1.8415108716492323
aF1.371427511975777
aF1.4669886655949682
aF1.3088734825526867
aF1.6706669447199092
aF3.593739907232497
aF4.504277833509354
aa(lp743
F1.8459648217312332
aF1.8410844990535624
aF1.5814302303357644
aF1.8486710379209057
aF1.714432380252966
aF4.298120856258941
aF6.356862992907409
aa(lp744
F1.3332501803399563
aF1.3957933851590743
aF1.355993817918991
aF1.7376950766160497
aF1.9781946798735814
aF2.747649117713705
aF6.9328383707758
aa(lp745
F1.920602072519362
aF1.0075205127300568
aF1.6477570115458284
aF1.5275073091665823
aF1.2964736467536242
aF2.854674488761342
aF4.014122496283974
aa(lp746
F1.5209285554545122
aF1.5047439709256054
aF1.0627113363921379
aF1.4863786863419095
aF1.2663362637587605
aF4.307357917507741
aF3.8129291321219974
aa(lp747
F1.9247456656581712
aF1.9258801606302507
aF1.633620360202222
aF1.3546412891878474
aF1.3668829087276038
aF4.5381781784731166
aF3.703421908544148
aa(lp748
F1.1246340869591696
aF1.7137752912325996
aF1.9572052422660435
aF1.1871506027738001
aF1.3494853339459643
aF2.1468507684585036
aF3.2304372202014475
aa(lp749
F1.6415422734015879
aF1.1758706968896004
aF1.3555787378026278
aF1.4141635905728065
aF1.0977927026197212
aF3.0078171171210477
aF3.205007478826884
aa(lp750
F1.3341955152750002
aF1.3128941854525957
aF1.2714181049143847
aF1.1548088660581344
aF1.8931731941509558
aF2.755795911378104
aF4.917688260178206
aa(lp751
F1.5504159030521645
aF1.2028989445895628
aF1.5350977612778558
aF1.0004948583325888
aF1.2471294339912973
aF2.508475642701917
aF2.5563217866774
aa(lp752
F1.867953935742634
aF1.694626048318113
aF1.990317869433872
aF1.8446659081414367
aF1.9712829157353577
aF3.1959766062412895
aF7.288748646529365
aa(lp753
F1.8351367103798264
aF1.3995609486923253
aF1.2327905873400775
aF1.5006953981724718
aF1.8090831880934064
aF4.320683212207951
aF5.524868659538237
aa(lp754
F1.3103708165943093
aF1.4113641629334852
aF1.1852195697249783
aF1.9780772724226146
aF1.2756287145925214
aF3.12939523792678
aF5.5400183131678595
aa(lp755
F1.5998648129561306
aF1.5412635085422295
aF1.731717095662843
aF1.173577481569165
aF1.6558786354039925
aF2.8498076474841767
aF4.119218160433612
aa(lp756
F1.9586518889626483
aF1.0186173394118847
aF1.1511806374121816
aF1.995047306196545
aF1.0712092301177512
aF4.233825993845649
aF5.1277029686515565
aa(lp757
F1.207841266700247
aF1.8863571019585783
aF1.0634321457347302
aF1.046662524877782
aF1.0294139387888335
aF4.71795371409165
aF2.155195498356274
aa(lp758
F1.3050926054623049
aF1.567402801629858
aF1.7911950181192404
aF1.3936610850147395
aF1.8427303471799696
aF2.322482035349532
aF5.337946352302472
aa(lp759
F1.363890690821188
aF1.6644606788602987
aF1.4861227373027348
aF1.6726182309086215
aF1.1316000692707378
aF3.1159116617684113
aF4.078170463141426
aa(lp760
F1.436414569776834
aF1.9365086753705396
aF1.6035320834184659
aF1.6738103064791017
aF1.7536021299844704
aF3.6253422841777008
aF5.876761372361735
aa(lp761
F1.4429491573670703
aF1.0270884022821898
aF1.7060282886681688
aF1.0114683632604926
aF1.238135834315223
aF1.838781266222652
aF2.5560485940923128
aa(lp762
F1.0301831545808104
aF1.7867680848466123
aF1.8088079989173573
aF1.6989056717088762
aF1.893366039002689
aF2.351724187174414
aF6.471115439013319
aa(lp763
F1.7872523384063062
aF1.1933465188666552
aF1.2687941425723324
aF1.6880554512532169
aF1.7155374016921388
aF3.6399496815667933
aF5.792599783110316
aa(lp764
F1.2071854497706194
aF1.3840373494029674
aF1.6526976214457214
aF1.9360672558556935
aF1.6789812373700075
aF2.0408186294416213
aF6.567334414637116
aa(lp765
F1.008990841657936
aF1.2324647459575968
aF1.779363024486276
aF1.532159392984863
aF1.5681981884340401
aF1.4258090303469053
aF4.80675796371955
aa(lp766
F1.8359246934941613
aF1.4120973079145362
aF1.6449426419319741
aF1.465196805407502
aF1.1882250469539057
aF3.26129200523392
aF3.558680440784961
aa(lp767
F1.9812273867688495
aF1.8355928563017263
aF1.211613502954787
aF1.2793668032934287
aF1.4637589212031792
aF6.020618847841501
aF3.779369596771142
aa(lp768
F1.601176686548376
aF1.7832124611342426
aF1.204457422232787
aF1.0253996000182097
aF1.1472066284554954
aF4.768631382953448
aF2.3675273880897296
aa(lp769
F1.7434743202553848
aF1.698202312632918
aF1.602729280303327
aF1.8709973944252325
aF1.9509268459329752
aF3.6959415871535635
aF7.306746808127995
aa(lp770
F1.851948236694314
aF1.6150715174318964
aF1.575851962231267
aF1.9160921749377948
aF1.361303263889804
aF3.831684969484973
aF5.524555799134882
aa(lp771
F1.6221897450017573
aF1.428545269571374
aF1.8575831845645392
aF1.035771180125746
aF1.177228816238657
aF2.515225802444427
aF2.4586896233617503
aa(lp772
F1.7966438385654526
aF1.4763049095345055
aF1.9362825334546696
aF1.153021509418398
aF1.681978757462793
aF2.7926736801798877
aF4.158511141737561
aa(lp773
F1.575027557054635
aF1.0595931801444127
aF1.3362968279327847
aF1.8668147511718134
aF1.2871208572527628
aF2.6965936291748003
aF5.1416774163677665
aa(lp774
F1.685565730379873
aF1.8100710241422693
aF1.0435860445892038
aF1.1993025104004946
aF1.5190571473287653
aF5.861988070450445
aF3.7458611283035346
aa(lp775
F1.9353072122920607
aF1.9339637603400233
aF1.589890476295332
aF1.3199530605264451
aF1.3436851673266716
aF4.708267609540475
aF3.547765910886835
aa(lp776
F1.361402722326233
aF1.4208375636666601
aF1.0495099231490728
aF1.0492809851615834
aF1.18163490737693
aF3.6895284830322472
aF2.4972516401533493
aa(lp777
F1.7666092577232142
aF1.5747159101043193
aF1.8654086844146072
aF1.1755678561045717
aF1.6567394135323756
aF3.002365387168016
aF4.126745268657899
aa(lp778
F1.066521260458424
aF1.225453684184528
aF1.0318632977717002
aF1.2575107871050086
aF1.1555101839597675
aF2.557707340488413
aF2.916537164920194
aa(lp779
F1.0761090649440743
aF1.9379981700389277
aF1.7182147175671283
aF1.9848190761415365
aF1.659419804506241
aF2.8598565572099783
aF6.6931808526028735
aa(lp780
F1.5894479981684486
aF1.8616865904088136
aF1.966608841099514
aF1.9002625861428817
aF1.5690242340029275
aF3.046982081316935
aF6.072834943182906
aa(lp781
F1.2243964922273736
aF1.5842491567543249
aF1.119619386181594
aF1.0000558501309653
aF1.6065349736355758
aF3.5806741204508383
aF3.5810663248954278
aa(lp782
F1.03382128116275
aF1.0908291999009128
aF1.0485721749936086
aF1.3129980233153278
aF1.2960839796568866
aF2.1540670624368063
aF3.403797491553191
aa(lp783
F1.5360409262537535
aF1.5963134387203004
aF1.9369180188579067
aF1.4948304896890683
aF1.939646272170446
aF2.533735694533567
aF5.9967458540487675
aa(lp784
F1.6764556636281212
aF1.7585866884830135
aF1.5842928252364978
aF1.2931937808077727
aF1.1454071387715796
aF3.7260351363008013
aF2.984307668268798
aa(lp785
F1.3780595248407486
aF1.096834842587874
aF1.4841526913183647
aF1.0961246395028368
aF1.9040419642993403
aF2.0901452687886866
aF4.826865027138114
aa(lp786
F1.0515358943743185
aF1.6899109071876062
aF1.808522576307718
aF1.9643076371634318
aF1.9558706888733879
aF2.190476725746545
aF7.683934645012645
aa(lp787
F1.2504796926350283
aF1.5860478817999848
aF1.9116708645027514
aF1.1682667622217613
aF1.1542835110426164
aF2.133864893168142
aF2.6972176515769872
aa(lp788
F1.0565027507982094
aF1.7437769795336595
aF1.147243597029891
aF1.999778198940957
aF1.038865930565597
aF3.6234294334330537
aF5.078355266649462
aa(lp789
F1.5218087506759228
aF1.4219199068980872
aF1.5519940434548518
aF1.29894909608206
aF1.6370558234719303
aF2.7949579533248157
aF4.367220523375761
aa(lp790
F1.325752527425614
aF1.6008572338446272
aF1.9278298998538923
aF1.0373649505482625
aF1.2520352395335141
aF2.241050233454471
aF2.6437182816597433
aa(lp791
F1.6857115337761728
aF1.894143934549505
aF1.2320038491368397
aF1.924742111742727
aF1.302959173103952
aF5.218656276440396
aF5.402334803491587
aa(lp792
F1.2476870845935324
aF1.6856640060557053
aF1.6687018173045565
aF1.5770417670628412
aF1.909836573417073
aF2.6356933016814468
aF6.134536472222155
aa(lp793
F1.06784916654254
aF1.6012507303691943
aF1.7174198060006445
aF1.2075970276150643
aF1.041197528463928
aF2.1569017260955503
aF2.5423828743841304
aa(lp794
F1.1829183117757358
aF1.7613677834769887
aF1.355820799158249
aF1.781518463765089
aF1.2728953698248806
aF3.3202855449627644
aF4.794070659257542
aa(lp795
F1.4572218276411193
aF1.5147154501199704
aF1.979240328250282
aF1.0491254027699615
aF1.3546536927568775
aF2.232097985640486
aF2.9357507380370786
aa(lp796
F1.7495654822938227
aF1.9456168860547405
aF1.8291267435081904
aF1.530515095520637
aF1.9550143506591078
aF3.742990729556683
aF6.164557568899598
aa(lp797
F1.2895713022167772
aF1.4234454655651463
aF1.4995628334355908
aF1.2357385930553448
aF1.697321566883512
aF2.460177762933005
aF4.407950371774303
aa(lp798
F1.1515710385549127
aF1.2708019988032904
aF1.2793815265083865
aF1.3401350869118542
aF1.2918560137298476
aF2.29880885104495
aF3.464854011382215
aa(lp799
F1.1884766703964522
aF1.6950754114107878
aF1.6732300814309027
aF1.64482715329307
aF1.7679771901148964
aF2.5613676768116798
aF5.831199708976749
aa(lp800
F1.9852825728425274
aF1.9277541362876145
aF1.286160988437898
aF1.9986948239378406
aF1.5523504324632926
aF5.95382924287475
aF6.404572864404887
aa.